
ctarget:     file format elf64-x86-64


Disassembly of section .init:

0000000000400c28 <_init>:
  400c28:	48 83 ec 08          	sub    $0x8,%rsp
  400c2c:	48 8b 05 c5 43 20 00 	mov    0x2043c5(%rip),%rax        # 604ff8 <_DYNAMIC+0x1d0>
  400c33:	48 85 c0             	test   %rax,%rax
  400c36:	74 05                	je     400c3d <_init+0x15>
  400c38:	e8 43 02 00 00       	callq  400e80 <socket@plt+0x10>
  400c3d:	48 83 c4 08          	add    $0x8,%rsp
  400c41:	c3                   	retq   

Disassembly of section .plt:

0000000000400c50 <strcasecmp@plt-0x10>:
  400c50:	ff 35 b2 43 20 00    	pushq  0x2043b2(%rip)        # 605008 <_GLOBAL_OFFSET_TABLE_+0x8>
  400c56:	ff 25 b4 43 20 00    	jmpq   *0x2043b4(%rip)        # 605010 <_GLOBAL_OFFSET_TABLE_+0x10>
  400c5c:	0f 1f 40 00          	nopl   0x0(%rax)

0000000000400c60 <strcasecmp@plt>:
  400c60:	ff 25 b2 43 20 00    	jmpq   *0x2043b2(%rip)        # 605018 <_GLOBAL_OFFSET_TABLE_+0x18>
  400c66:	68 00 00 00 00       	pushq  $0x0
  400c6b:	e9 e0 ff ff ff       	jmpq   400c50 <_init+0x28>

0000000000400c70 <__errno_location@plt>:
  400c70:	ff 25 aa 43 20 00    	jmpq   *0x2043aa(%rip)        # 605020 <_GLOBAL_OFFSET_TABLE_+0x20>
  400c76:	68 01 00 00 00       	pushq  $0x1
  400c7b:	e9 d0 ff ff ff       	jmpq   400c50 <_init+0x28>

0000000000400c80 <srandom@plt>:
  400c80:	ff 25 a2 43 20 00    	jmpq   *0x2043a2(%rip)        # 605028 <_GLOBAL_OFFSET_TABLE_+0x28>
  400c86:	68 02 00 00 00       	pushq  $0x2
  400c8b:	e9 c0 ff ff ff       	jmpq   400c50 <_init+0x28>

0000000000400c90 <strncmp@plt>:
  400c90:	ff 25 9a 43 20 00    	jmpq   *0x20439a(%rip)        # 605030 <_GLOBAL_OFFSET_TABLE_+0x30>
  400c96:	68 03 00 00 00       	pushq  $0x3
  400c9b:	e9 b0 ff ff ff       	jmpq   400c50 <_init+0x28>

0000000000400ca0 <strcpy@plt>:
  400ca0:	ff 25 92 43 20 00    	jmpq   *0x204392(%rip)        # 605038 <_GLOBAL_OFFSET_TABLE_+0x38>
  400ca6:	68 04 00 00 00       	pushq  $0x4
  400cab:	e9 a0 ff ff ff       	jmpq   400c50 <_init+0x28>

0000000000400cb0 <puts@plt>:
  400cb0:	ff 25 8a 43 20 00    	jmpq   *0x20438a(%rip)        # 605040 <_GLOBAL_OFFSET_TABLE_+0x40>
  400cb6:	68 05 00 00 00       	pushq  $0x5
  400cbb:	e9 90 ff ff ff       	jmpq   400c50 <_init+0x28>

0000000000400cc0 <write@plt>:
  400cc0:	ff 25 82 43 20 00    	jmpq   *0x204382(%rip)        # 605048 <_GLOBAL_OFFSET_TABLE_+0x48>
  400cc6:	68 06 00 00 00       	pushq  $0x6
  400ccb:	e9 80 ff ff ff       	jmpq   400c50 <_init+0x28>

0000000000400cd0 <__stack_chk_fail@plt>:
  400cd0:	ff 25 7a 43 20 00    	jmpq   *0x20437a(%rip)        # 605050 <_GLOBAL_OFFSET_TABLE_+0x50>
  400cd6:	68 07 00 00 00       	pushq  $0x7
  400cdb:	e9 70 ff ff ff       	jmpq   400c50 <_init+0x28>

0000000000400ce0 <mmap@plt>:
  400ce0:	ff 25 72 43 20 00    	jmpq   *0x204372(%rip)        # 605058 <_GLOBAL_OFFSET_TABLE_+0x58>
  400ce6:	68 08 00 00 00       	pushq  $0x8
  400ceb:	e9 60 ff ff ff       	jmpq   400c50 <_init+0x28>

0000000000400cf0 <memset@plt>:
  400cf0:	ff 25 6a 43 20 00    	jmpq   *0x20436a(%rip)        # 605060 <_GLOBAL_OFFSET_TABLE_+0x60>
  400cf6:	68 09 00 00 00       	pushq  $0x9
  400cfb:	e9 50 ff ff ff       	jmpq   400c50 <_init+0x28>

0000000000400d00 <alarm@plt>:
  400d00:	ff 25 62 43 20 00    	jmpq   *0x204362(%rip)        # 605068 <_GLOBAL_OFFSET_TABLE_+0x68>
  400d06:	68 0a 00 00 00       	pushq  $0xa
  400d0b:	e9 40 ff ff ff       	jmpq   400c50 <_init+0x28>

0000000000400d10 <close@plt>:
  400d10:	ff 25 5a 43 20 00    	jmpq   *0x20435a(%rip)        # 605070 <_GLOBAL_OFFSET_TABLE_+0x70>
  400d16:	68 0b 00 00 00       	pushq  $0xb
  400d1b:	e9 30 ff ff ff       	jmpq   400c50 <_init+0x28>

0000000000400d20 <read@plt>:
  400d20:	ff 25 52 43 20 00    	jmpq   *0x204352(%rip)        # 605078 <_GLOBAL_OFFSET_TABLE_+0x78>
  400d26:	68 0c 00 00 00       	pushq  $0xc
  400d2b:	e9 20 ff ff ff       	jmpq   400c50 <_init+0x28>

0000000000400d30 <__libc_start_main@plt>:
  400d30:	ff 25 4a 43 20 00    	jmpq   *0x20434a(%rip)        # 605080 <_GLOBAL_OFFSET_TABLE_+0x80>
  400d36:	68 0d 00 00 00       	pushq  $0xd
  400d3b:	e9 10 ff ff ff       	jmpq   400c50 <_init+0x28>

0000000000400d40 <signal@plt>:
  400d40:	ff 25 42 43 20 00    	jmpq   *0x204342(%rip)        # 605088 <_GLOBAL_OFFSET_TABLE_+0x88>
  400d46:	68 0e 00 00 00       	pushq  $0xe
  400d4b:	e9 00 ff ff ff       	jmpq   400c50 <_init+0x28>

0000000000400d50 <gethostbyname@plt>:
  400d50:	ff 25 3a 43 20 00    	jmpq   *0x20433a(%rip)        # 605090 <_GLOBAL_OFFSET_TABLE_+0x90>
  400d56:	68 0f 00 00 00       	pushq  $0xf
  400d5b:	e9 f0 fe ff ff       	jmpq   400c50 <_init+0x28>

0000000000400d60 <__memmove_chk@plt>:
  400d60:	ff 25 32 43 20 00    	jmpq   *0x204332(%rip)        # 605098 <_GLOBAL_OFFSET_TABLE_+0x98>
  400d66:	68 10 00 00 00       	pushq  $0x10
  400d6b:	e9 e0 fe ff ff       	jmpq   400c50 <_init+0x28>

0000000000400d70 <strtol@plt>:
  400d70:	ff 25 2a 43 20 00    	jmpq   *0x20432a(%rip)        # 6050a0 <_GLOBAL_OFFSET_TABLE_+0xa0>
  400d76:	68 11 00 00 00       	pushq  $0x11
  400d7b:	e9 d0 fe ff ff       	jmpq   400c50 <_init+0x28>

0000000000400d80 <memcpy@plt>:
  400d80:	ff 25 22 43 20 00    	jmpq   *0x204322(%rip)        # 6050a8 <_GLOBAL_OFFSET_TABLE_+0xa8>
  400d86:	68 12 00 00 00       	pushq  $0x12
  400d8b:	e9 c0 fe ff ff       	jmpq   400c50 <_init+0x28>

0000000000400d90 <time@plt>:
  400d90:	ff 25 1a 43 20 00    	jmpq   *0x20431a(%rip)        # 6050b0 <_GLOBAL_OFFSET_TABLE_+0xb0>
  400d96:	68 13 00 00 00       	pushq  $0x13
  400d9b:	e9 b0 fe ff ff       	jmpq   400c50 <_init+0x28>

0000000000400da0 <random@plt>:
  400da0:	ff 25 12 43 20 00    	jmpq   *0x204312(%rip)        # 6050b8 <_GLOBAL_OFFSET_TABLE_+0xb8>
  400da6:	68 14 00 00 00       	pushq  $0x14
  400dab:	e9 a0 fe ff ff       	jmpq   400c50 <_init+0x28>

0000000000400db0 <_IO_getc@plt>:
  400db0:	ff 25 0a 43 20 00    	jmpq   *0x20430a(%rip)        # 6050c0 <_GLOBAL_OFFSET_TABLE_+0xc0>
  400db6:	68 15 00 00 00       	pushq  $0x15
  400dbb:	e9 90 fe ff ff       	jmpq   400c50 <_init+0x28>

0000000000400dc0 <__isoc99_sscanf@plt>:
  400dc0:	ff 25 02 43 20 00    	jmpq   *0x204302(%rip)        # 6050c8 <_GLOBAL_OFFSET_TABLE_+0xc8>
  400dc6:	68 16 00 00 00       	pushq  $0x16
  400dcb:	e9 80 fe ff ff       	jmpq   400c50 <_init+0x28>

0000000000400dd0 <munmap@plt>:
  400dd0:	ff 25 fa 42 20 00    	jmpq   *0x2042fa(%rip)        # 6050d0 <_GLOBAL_OFFSET_TABLE_+0xd0>
  400dd6:	68 17 00 00 00       	pushq  $0x17
  400ddb:	e9 70 fe ff ff       	jmpq   400c50 <_init+0x28>

0000000000400de0 <__printf_chk@plt>:
  400de0:	ff 25 f2 42 20 00    	jmpq   *0x2042f2(%rip)        # 6050d8 <_GLOBAL_OFFSET_TABLE_+0xd8>
  400de6:	68 18 00 00 00       	pushq  $0x18
  400deb:	e9 60 fe ff ff       	jmpq   400c50 <_init+0x28>

0000000000400df0 <fopen@plt>:
  400df0:	ff 25 ea 42 20 00    	jmpq   *0x2042ea(%rip)        # 6050e0 <_GLOBAL_OFFSET_TABLE_+0xe0>
  400df6:	68 19 00 00 00       	pushq  $0x19
  400dfb:	e9 50 fe ff ff       	jmpq   400c50 <_init+0x28>

0000000000400e00 <getopt@plt>:
  400e00:	ff 25 e2 42 20 00    	jmpq   *0x2042e2(%rip)        # 6050e8 <_GLOBAL_OFFSET_TABLE_+0xe8>
  400e06:	68 1a 00 00 00       	pushq  $0x1a
  400e0b:	e9 40 fe ff ff       	jmpq   400c50 <_init+0x28>

0000000000400e10 <strtoul@plt>:
  400e10:	ff 25 da 42 20 00    	jmpq   *0x2042da(%rip)        # 6050f0 <_GLOBAL_OFFSET_TABLE_+0xf0>
  400e16:	68 1b 00 00 00       	pushq  $0x1b
  400e1b:	e9 30 fe ff ff       	jmpq   400c50 <_init+0x28>

0000000000400e20 <gethostname@plt>:
  400e20:	ff 25 d2 42 20 00    	jmpq   *0x2042d2(%rip)        # 6050f8 <_GLOBAL_OFFSET_TABLE_+0xf8>
  400e26:	68 1c 00 00 00       	pushq  $0x1c
  400e2b:	e9 20 fe ff ff       	jmpq   400c50 <_init+0x28>

0000000000400e30 <exit@plt>:
  400e30:	ff 25 ca 42 20 00    	jmpq   *0x2042ca(%rip)        # 605100 <_GLOBAL_OFFSET_TABLE_+0x100>
  400e36:	68 1d 00 00 00       	pushq  $0x1d
  400e3b:	e9 10 fe ff ff       	jmpq   400c50 <_init+0x28>

0000000000400e40 <connect@plt>:
  400e40:	ff 25 c2 42 20 00    	jmpq   *0x2042c2(%rip)        # 605108 <_GLOBAL_OFFSET_TABLE_+0x108>
  400e46:	68 1e 00 00 00       	pushq  $0x1e
  400e4b:	e9 00 fe ff ff       	jmpq   400c50 <_init+0x28>

0000000000400e50 <__fprintf_chk@plt>:
  400e50:	ff 25 ba 42 20 00    	jmpq   *0x2042ba(%rip)        # 605110 <_GLOBAL_OFFSET_TABLE_+0x110>
  400e56:	68 1f 00 00 00       	pushq  $0x1f
  400e5b:	e9 f0 fd ff ff       	jmpq   400c50 <_init+0x28>

0000000000400e60 <__sprintf_chk@plt>:
  400e60:	ff 25 b2 42 20 00    	jmpq   *0x2042b2(%rip)        # 605118 <_GLOBAL_OFFSET_TABLE_+0x118>
  400e66:	68 20 00 00 00       	pushq  $0x20
  400e6b:	e9 e0 fd ff ff       	jmpq   400c50 <_init+0x28>

0000000000400e70 <socket@plt>:
  400e70:	ff 25 aa 42 20 00    	jmpq   *0x2042aa(%rip)        # 605120 <_GLOBAL_OFFSET_TABLE_+0x120>
  400e76:	68 21 00 00 00       	pushq  $0x21
  400e7b:	e9 d0 fd ff ff       	jmpq   400c50 <_init+0x28>

Disassembly of section .plt.got:

0000000000400e80 <.plt.got>:
  400e80:	ff 25 72 41 20 00    	jmpq   *0x204172(%rip)        # 604ff8 <_DYNAMIC+0x1d0>
  400e86:	66 90                	xchg   %ax,%ax

Disassembly of section .text:

0000000000400e90 <_start>:
  400e90:	31 ed                	xor    %ebp,%ebp
  400e92:	49 89 d1             	mov    %rdx,%r9
  400e95:	5e                   	pop    %rsi
  400e96:	48 89 e2             	mov    %rsp,%rdx
  400e99:	48 83 e4 f0          	and    $0xfffffffffffffff0,%rsp
  400e9d:	50                   	push   %rax
  400e9e:	54                   	push   %rsp
  400e9f:	49 c7 c0 c0 2e 40 00 	mov    $0x402ec0,%r8
  400ea6:	48 c7 c1 50 2e 40 00 	mov    $0x402e50,%rcx
  400ead:	48 c7 c7 67 11 40 00 	mov    $0x401167,%rdi
  400eb4:	e8 77 fe ff ff       	callq  400d30 <__libc_start_main@plt>
  400eb9:	f4                   	hlt    
  400eba:	55                   	push   %rbp
  400ebb:	48 89 e5             	mov    %rsp,%rbp
  400ebe:	b8 f7 54 60 00       	mov    $0x6054f7,%eax
  400ec3:	48 2d f0 54 60 00    	sub    $0x6054f0,%rax
  400ec9:	48 83 f8 0e          	cmp    $0xe,%rax
  400ecd:	76 12                	jbe    400ee1 <_start+0x51>
  400ecf:	b8 00 00 00 00       	mov    $0x0,%eax
  400ed4:	48 85 c0             	test   %rax,%rax
  400ed7:	74 08                	je     400ee1 <_start+0x51>
  400ed9:	bf f0 54 60 00       	mov    $0x6054f0,%edi
  400ede:	5d                   	pop    %rbp
  400edf:	ff e0                	jmpq   *%rax
  400ee1:	5d                   	pop    %rbp
  400ee2:	c3                   	retq   
  400ee3:	55                   	push   %rbp
  400ee4:	48 89 e5             	mov    %rsp,%rbp
  400ee7:	be f0 54 60 00       	mov    $0x6054f0,%esi
  400eec:	48 81 ee f0 54 60 00 	sub    $0x6054f0,%rsi
  400ef3:	48 c1 fe 03          	sar    $0x3,%rsi
  400ef7:	48 89 f0             	mov    %rsi,%rax
  400efa:	48 c1 e8 3f          	shr    $0x3f,%rax
  400efe:	48 01 c6             	add    %rax,%rsi
  400f01:	48 d1 fe             	sar    %rsi
  400f04:	74 12                	je     400f18 <_start+0x88>
  400f06:	b8 00 00 00 00       	mov    $0x0,%eax
  400f0b:	48 85 c0             	test   %rax,%rax
  400f0e:	74 08                	je     400f18 <_start+0x88>
  400f10:	bf f0 54 60 00       	mov    $0x6054f0,%edi
  400f15:	5d                   	pop    %rbp
  400f16:	ff e0                	jmpq   *%rax
  400f18:	5d                   	pop    %rbp
  400f19:	c3                   	retq   
  400f1a:	80 3d f7 45 20 00 00 	cmpb   $0x0,0x2045f7(%rip)        # 605518 <stderr@@GLIBC_2.2.5+0x8>
  400f21:	75 11                	jne    400f34 <_start+0xa4>
  400f23:	55                   	push   %rbp
  400f24:	48 89 e5             	mov    %rsp,%rbp
  400f27:	e8 8e ff ff ff       	callq  400eba <_start+0x2a>
  400f2c:	c6 05 e5 45 20 00 01 	movb   $0x1,0x2045e5(%rip)        # 605518 <stderr@@GLIBC_2.2.5+0x8>
  400f33:	5d                   	pop    %rbp
  400f34:	c3                   	retq   
  400f35:	bf 20 4e 60 00       	mov    $0x604e20,%edi
  400f3a:	48 83 3f 00          	cmpq   $0x0,(%rdi)
  400f3e:	75 02                	jne    400f42 <_start+0xb2>
  400f40:	eb a1                	jmp    400ee3 <_start+0x53>
  400f42:	b8 00 00 00 00       	mov    $0x0,%eax
  400f47:	48 85 c0             	test   %rax,%rax
  400f4a:	74 f4                	je     400f40 <_start+0xb0>
  400f4c:	55                   	push   %rbp
  400f4d:	48 89 e5             	mov    %rsp,%rbp
  400f50:	ff d0                	callq  *%rax
  400f52:	5d                   	pop    %rbp
  400f53:	eb 8e                	jmp    400ee3 <_start+0x53>

0000000000400f55 <usage>:
  400f55:	48 83 ec 08          	sub    $0x8,%rsp
  400f59:	48 89 fa             	mov    %rdi,%rdx
  400f5c:	83 3d 05 46 20 00 00 	cmpl   $0x0,0x204605(%rip)        # 605568 <is_checker>
  400f63:	74 3e                	je     400fa3 <usage+0x4e>
  400f65:	be d8 2e 40 00       	mov    $0x402ed8,%esi
  400f6a:	bf 01 00 00 00       	mov    $0x1,%edi
  400f6f:	b8 00 00 00 00       	mov    $0x0,%eax
  400f74:	e8 67 fe ff ff       	callq  400de0 <__printf_chk@plt>
  400f79:	bf 10 2f 40 00       	mov    $0x402f10,%edi
  400f7e:	e8 2d fd ff ff       	callq  400cb0 <puts@plt>
  400f83:	bf 88 30 40 00       	mov    $0x403088,%edi
  400f88:	e8 23 fd ff ff       	callq  400cb0 <puts@plt>
  400f8d:	bf 38 2f 40 00       	mov    $0x402f38,%edi
  400f92:	e8 19 fd ff ff       	callq  400cb0 <puts@plt>
  400f97:	bf a2 30 40 00       	mov    $0x4030a2,%edi
  400f9c:	e8 0f fd ff ff       	callq  400cb0 <puts@plt>
  400fa1:	eb 32                	jmp    400fd5 <usage+0x80>
  400fa3:	be be 30 40 00       	mov    $0x4030be,%esi
  400fa8:	bf 01 00 00 00       	mov    $0x1,%edi
  400fad:	b8 00 00 00 00       	mov    $0x0,%eax
  400fb2:	e8 29 fe ff ff       	callq  400de0 <__printf_chk@plt>
  400fb7:	bf 60 2f 40 00       	mov    $0x402f60,%edi
  400fbc:	e8 ef fc ff ff       	callq  400cb0 <puts@plt>
  400fc1:	bf 88 2f 40 00       	mov    $0x402f88,%edi
  400fc6:	e8 e5 fc ff ff       	callq  400cb0 <puts@plt>
  400fcb:	bf dc 30 40 00       	mov    $0x4030dc,%edi
  400fd0:	e8 db fc ff ff       	callq  400cb0 <puts@plt>
  400fd5:	bf 00 00 00 00       	mov    $0x0,%edi
  400fda:	e8 51 fe ff ff       	callq  400e30 <exit@plt>

0000000000400fdf <initialize_target>:
  400fdf:	55                   	push   %rbp
  400fe0:	53                   	push   %rbx
  400fe1:	48 81 ec 18 21 00 00 	sub    $0x2118,%rsp
  400fe8:	89 f5                	mov    %esi,%ebp
  400fea:	64 48 8b 04 25 28 00 	mov    %fs:0x28,%rax
  400ff1:	00 00 
  400ff3:	48 89 84 24 08 21 00 	mov    %rax,0x2108(%rsp)
  400ffa:	00 
  400ffb:	31 c0                	xor    %eax,%eax
  400ffd:	89 3d 55 45 20 00    	mov    %edi,0x204555(%rip)        # 605558 <check_level>
  401003:	8b 3d 7f 41 20 00    	mov    0x20417f(%rip),%edi        # 605188 <target_id>
  401009:	e8 21 1e 00 00       	callq  402e2f <gencookie>
  40100e:	89 05 50 45 20 00    	mov    %eax,0x204550(%rip)        # 605564 <cookie>
  401014:	89 c7                	mov    %eax,%edi
  401016:	e8 14 1e 00 00       	callq  402e2f <gencookie>
  40101b:	89 05 3f 45 20 00    	mov    %eax,0x20453f(%rip)        # 605560 <authkey>
  401021:	8b 05 61 41 20 00    	mov    0x204161(%rip),%eax        # 605188 <target_id>
  401027:	8d 78 01             	lea    0x1(%rax),%edi
  40102a:	e8 51 fc ff ff       	callq  400c80 <srandom@plt>
  40102f:	e8 6c fd ff ff       	callq  400da0 <random@plt>
  401034:	89 c7                	mov    %eax,%edi
  401036:	e8 06 03 00 00       	callq  401341 <scramble>
  40103b:	89 c3                	mov    %eax,%ebx
  40103d:	85 ed                	test   %ebp,%ebp
  40103f:	74 1a                	je     40105b <initialize_target+0x7c>
  401041:	bf 00 00 00 00       	mov    $0x0,%edi
  401046:	e8 45 fd ff ff       	callq  400d90 <time@plt>
  40104b:	89 c7                	mov    %eax,%edi
  40104d:	e8 2e fc ff ff       	callq  400c80 <srandom@plt>
  401052:	e8 49 fd ff ff       	callq  400da0 <random@plt>
  401057:	89 c2                	mov    %eax,%edx
  401059:	eb 05                	jmp    401060 <initialize_target+0x81>
  40105b:	ba 00 00 00 00       	mov    $0x0,%edx
  401060:	8d 04 13             	lea    (%rbx,%rdx,1),%eax
  401063:	0f b7 c0             	movzwl %ax,%eax
  401066:	8d 04 c5 00 01 00 00 	lea    0x100(,%rax,8),%eax
  40106d:	89 c0                	mov    %eax,%eax
  40106f:	48 89 05 6a 44 20 00 	mov    %rax,0x20446a(%rip)        # 6054e0 <buf_offset>
  401076:	c6 05 0b 51 20 00 63 	movb   $0x63,0x20510b(%rip)        # 606188 <target_prefix>
  40107d:	83 3d 64 44 20 00 00 	cmpl   $0x0,0x204464(%rip)        # 6054e8 <notify>
  401084:	0f 84 bb 00 00 00    	je     401145 <initialize_target+0x166>
  40108a:	83 3d d7 44 20 00 00 	cmpl   $0x0,0x2044d7(%rip)        # 605568 <is_checker>
  401091:	0f 85 ae 00 00 00    	jne    401145 <initialize_target+0x166>
  401097:	be 00 01 00 00       	mov    $0x100,%esi
  40109c:	48 89 e7             	mov    %rsp,%rdi
  40109f:	e8 7c fd ff ff       	callq  400e20 <gethostname@plt>
  4010a4:	85 c0                	test   %eax,%eax
  4010a6:	74 25                	je     4010cd <initialize_target+0xee>
  4010a8:	bf b8 2f 40 00       	mov    $0x402fb8,%edi
  4010ad:	e8 fe fb ff ff       	callq  400cb0 <puts@plt>
  4010b2:	bf 08 00 00 00       	mov    $0x8,%edi
  4010b7:	e8 74 fd ff ff       	callq  400e30 <exit@plt>
  4010bc:	48 89 e6             	mov    %rsp,%rsi
  4010bf:	e8 9c fb ff ff       	callq  400c60 <strcasecmp@plt>
  4010c4:	85 c0                	test   %eax,%eax
  4010c6:	74 21                	je     4010e9 <initialize_target+0x10a>
  4010c8:	83 c3 01             	add    $0x1,%ebx
  4010cb:	eb 05                	jmp    4010d2 <initialize_target+0xf3>
  4010cd:	bb 00 00 00 00       	mov    $0x0,%ebx
  4010d2:	48 63 c3             	movslq %ebx,%rax
  4010d5:	48 8b 3c c5 c0 51 60 	mov    0x6051c0(,%rax,8),%rdi
  4010dc:	00 
  4010dd:	48 85 ff             	test   %rdi,%rdi
  4010e0:	75 da                	jne    4010bc <initialize_target+0xdd>
  4010e2:	b8 00 00 00 00       	mov    $0x0,%eax
  4010e7:	eb 05                	jmp    4010ee <initialize_target+0x10f>
  4010e9:	b8 01 00 00 00       	mov    $0x1,%eax
  4010ee:	85 c0                	test   %eax,%eax
  4010f0:	75 1c                	jne    40110e <initialize_target+0x12f>
  4010f2:	48 89 e2             	mov    %rsp,%rdx
  4010f5:	be f0 2f 40 00       	mov    $0x402ff0,%esi
  4010fa:	bf 01 00 00 00       	mov    $0x1,%edi
  4010ff:	e8 dc fc ff ff       	callq  400de0 <__printf_chk@plt>
  401104:	bf 08 00 00 00       	mov    $0x8,%edi
  401109:	e8 22 fd ff ff       	callq  400e30 <exit@plt>
  40110e:	48 8d bc 24 00 01 00 	lea    0x100(%rsp),%rdi
  401115:	00 
  401116:	e8 7e 1a 00 00       	callq  402b99 <init_driver>
  40111b:	85 c0                	test   %eax,%eax
  40111d:	79 26                	jns    401145 <initialize_target+0x166>
  40111f:	48 8d 94 24 00 01 00 	lea    0x100(%rsp),%rdx
  401126:	00 
  401127:	be 30 30 40 00       	mov    $0x403030,%esi
  40112c:	bf 01 00 00 00       	mov    $0x1,%edi
  401131:	b8 00 00 00 00       	mov    $0x0,%eax
  401136:	e8 a5 fc ff ff       	callq  400de0 <__printf_chk@plt>
  40113b:	bf 08 00 00 00       	mov    $0x8,%edi
  401140:	e8 eb fc ff ff       	callq  400e30 <exit@plt>
  401145:	48 8b 84 24 08 21 00 	mov    0x2108(%rsp),%rax
  40114c:	00 
  40114d:	64 48 33 04 25 28 00 	xor    %fs:0x28,%rax
  401154:	00 00 
  401156:	74 05                	je     40115d <initialize_target+0x17e>
  401158:	e8 73 fb ff ff       	callq  400cd0 <__stack_chk_fail@plt>
  40115d:	48 81 c4 18 21 00 00 	add    $0x2118,%rsp
  401164:	5b                   	pop    %rbx
  401165:	5d                   	pop    %rbp
  401166:	c3                   	retq   

0000000000401167 <main>:
  401167:	41 56                	push   %r14
  401169:	41 55                	push   %r13
  40116b:	41 54                	push   %r12
  40116d:	55                   	push   %rbp
  40116e:	53                   	push   %rbx
  40116f:	41 89 fc             	mov    %edi,%r12d
  401172:	48 89 f3             	mov    %rsi,%rbx
  401175:	be de 1e 40 00       	mov    $0x401ede,%esi
  40117a:	bf 0b 00 00 00       	mov    $0xb,%edi
  40117f:	e8 bc fb ff ff       	callq  400d40 <signal@plt>
  401184:	be 90 1e 40 00       	mov    $0x401e90,%esi
  401189:	bf 07 00 00 00       	mov    $0x7,%edi
  40118e:	e8 ad fb ff ff       	callq  400d40 <signal@plt>
  401193:	be 2c 1f 40 00       	mov    $0x401f2c,%esi
  401198:	bf 04 00 00 00       	mov    $0x4,%edi
  40119d:	e8 9e fb ff ff       	callq  400d40 <signal@plt>
  4011a2:	83 3d bf 43 20 00 00 	cmpl   $0x0,0x2043bf(%rip)        # 605568 <is_checker>
  4011a9:	74 20                	je     4011cb <main+0x64>
  4011ab:	be 7a 1f 40 00       	mov    $0x401f7a,%esi
  4011b0:	bf 0e 00 00 00       	mov    $0xe,%edi
  4011b5:	e8 86 fb ff ff       	callq  400d40 <signal@plt>
  4011ba:	bf 05 00 00 00       	mov    $0x5,%edi
  4011bf:	e8 3c fb ff ff       	callq  400d00 <alarm@plt>
  4011c4:	bd fa 30 40 00       	mov    $0x4030fa,%ebp
  4011c9:	eb 05                	jmp    4011d0 <main+0x69>
  4011cb:	bd f5 30 40 00       	mov    $0x4030f5,%ebp
  4011d0:	48 8b 05 29 43 20 00 	mov    0x204329(%rip),%rax        # 605500 <stdin@@GLIBC_2.2.5>
  4011d7:	48 89 05 72 43 20 00 	mov    %rax,0x204372(%rip)        # 605550 <infile>
  4011de:	41 bd 00 00 00 00    	mov    $0x0,%r13d
  4011e4:	41 be 00 00 00 00    	mov    $0x0,%r14d
  4011ea:	e9 c6 00 00 00       	jmpq   4012b5 <main+0x14e>
  4011ef:	83 e8 61             	sub    $0x61,%eax
  4011f2:	3c 10                	cmp    $0x10,%al
  4011f4:	0f 87 9c 00 00 00    	ja     401296 <main+0x12f>
  4011fa:	0f b6 c0             	movzbl %al,%eax
  4011fd:	ff 24 c5 40 31 40 00 	jmpq   *0x403140(,%rax,8)
  401204:	48 8b 3b             	mov    (%rbx),%rdi
  401207:	e8 49 fd ff ff       	callq  400f55 <usage>
  40120c:	be e5 33 40 00       	mov    $0x4033e5,%esi
  401211:	48 8b 3d f0 42 20 00 	mov    0x2042f0(%rip),%rdi        # 605508 <optarg@@GLIBC_2.2.5>
  401218:	e8 d3 fb ff ff       	callq  400df0 <fopen@plt>
  40121d:	48 89 05 2c 43 20 00 	mov    %rax,0x20432c(%rip)        # 605550 <infile>
  401224:	48 85 c0             	test   %rax,%rax
  401227:	0f 85 88 00 00 00    	jne    4012b5 <main+0x14e>
  40122d:	48 8b 0d d4 42 20 00 	mov    0x2042d4(%rip),%rcx        # 605508 <optarg@@GLIBC_2.2.5>
  401234:	ba 02 31 40 00       	mov    $0x403102,%edx
  401239:	be 01 00 00 00       	mov    $0x1,%esi
  40123e:	48 8b 3d cb 42 20 00 	mov    0x2042cb(%rip),%rdi        # 605510 <stderr@@GLIBC_2.2.5>
  401245:	e8 06 fc ff ff       	callq  400e50 <__fprintf_chk@plt>
  40124a:	b8 01 00 00 00       	mov    $0x1,%eax
  40124f:	e9 e4 00 00 00       	jmpq   401338 <main+0x1d1>
  401254:	ba 10 00 00 00       	mov    $0x10,%edx
  401259:	be 00 00 00 00       	mov    $0x0,%esi
  40125e:	48 8b 3d a3 42 20 00 	mov    0x2042a3(%rip),%rdi        # 605508 <optarg@@GLIBC_2.2.5>
  401265:	e8 a6 fb ff ff       	callq  400e10 <strtoul@plt>
  40126a:	41 89 c6             	mov    %eax,%r14d
  40126d:	eb 46                	jmp    4012b5 <main+0x14e>
  40126f:	ba 0a 00 00 00       	mov    $0xa,%edx
  401274:	be 00 00 00 00       	mov    $0x0,%esi
  401279:	48 8b 3d 88 42 20 00 	mov    0x204288(%rip),%rdi        # 605508 <optarg@@GLIBC_2.2.5>
  401280:	e8 eb fa ff ff       	callq  400d70 <strtol@plt>
  401285:	41 89 c5             	mov    %eax,%r13d
  401288:	eb 2b                	jmp    4012b5 <main+0x14e>
  40128a:	c7 05 54 42 20 00 00 	movl   $0x0,0x204254(%rip)        # 6054e8 <notify>
  401291:	00 00 00 
  401294:	eb 1f                	jmp    4012b5 <main+0x14e>
  401296:	0f be d2             	movsbl %dl,%edx
  401299:	be 1f 31 40 00       	mov    $0x40311f,%esi
  40129e:	bf 01 00 00 00       	mov    $0x1,%edi
  4012a3:	b8 00 00 00 00       	mov    $0x0,%eax
  4012a8:	e8 33 fb ff ff       	callq  400de0 <__printf_chk@plt>
  4012ad:	48 8b 3b             	mov    (%rbx),%rdi
  4012b0:	e8 a0 fc ff ff       	callq  400f55 <usage>
  4012b5:	48 89 ea             	mov    %rbp,%rdx
  4012b8:	48 89 de             	mov    %rbx,%rsi
  4012bb:	44 89 e7             	mov    %r12d,%edi
  4012be:	e8 3d fb ff ff       	callq  400e00 <getopt@plt>
  4012c3:	89 c2                	mov    %eax,%edx
  4012c5:	3c ff                	cmp    $0xff,%al
  4012c7:	0f 85 22 ff ff ff    	jne    4011ef <main+0x88>
  4012cd:	be 00 00 00 00       	mov    $0x0,%esi
  4012d2:	44 89 ef             	mov    %r13d,%edi
  4012d5:	e8 05 fd ff ff       	callq  400fdf <initialize_target>
  4012da:	83 3d 87 42 20 00 00 	cmpl   $0x0,0x204287(%rip)        # 605568 <is_checker>
  4012e1:	74 2a                	je     40130d <main+0x1a6>
  4012e3:	44 3b 35 76 42 20 00 	cmp    0x204276(%rip),%r14d        # 605560 <authkey>
  4012ea:	74 21                	je     40130d <main+0x1a6>
  4012ec:	44 89 f2             	mov    %r14d,%edx
  4012ef:	be 58 30 40 00       	mov    $0x403058,%esi
  4012f4:	bf 01 00 00 00       	mov    $0x1,%edi
  4012f9:	b8 00 00 00 00       	mov    $0x0,%eax
  4012fe:	e8 dd fa ff ff       	callq  400de0 <__printf_chk@plt>
  401303:	b8 00 00 00 00       	mov    $0x0,%eax
  401308:	e8 1f 08 00 00       	callq  401b2c <check_fail>
  40130d:	8b 15 51 42 20 00    	mov    0x204251(%rip),%edx        # 605564 <cookie>
  401313:	be 32 31 40 00       	mov    $0x403132,%esi
  401318:	bf 01 00 00 00       	mov    $0x1,%edi
  40131d:	b8 00 00 00 00       	mov    $0x0,%eax
  401322:	e8 b9 fa ff ff       	callq  400de0 <__printf_chk@plt>
  401327:	48 8b 3d b2 41 20 00 	mov    0x2041b2(%rip),%rdi        # 6054e0 <buf_offset>
  40132e:	e8 4a 0d 00 00       	callq  40207d <stable_launch>
  401333:	b8 00 00 00 00       	mov    $0x0,%eax
  401338:	5b                   	pop    %rbx
  401339:	5d                   	pop    %rbp
  40133a:	41 5c                	pop    %r12
  40133c:	41 5d                	pop    %r13
  40133e:	41 5e                	pop    %r14
  401340:	c3                   	retq   

0000000000401341 <scramble>:
  401341:	48 83 ec 38          	sub    $0x38,%rsp
  401345:	64 48 8b 04 25 28 00 	mov    %fs:0x28,%rax
  40134c:	00 00 
  40134e:	48 89 44 24 28       	mov    %rax,0x28(%rsp)
  401353:	31 c0                	xor    %eax,%eax
  401355:	eb 10                	jmp    401367 <scramble+0x26>
  401357:	69 d0 0f 56 00 00    	imul   $0x560f,%eax,%edx
  40135d:	01 fa                	add    %edi,%edx
  40135f:	89 c1                	mov    %eax,%ecx
  401361:	89 14 8c             	mov    %edx,(%rsp,%rcx,4)
  401364:	83 c0 01             	add    $0x1,%eax
  401367:	83 f8 09             	cmp    $0x9,%eax
  40136a:	76 eb                	jbe    401357 <scramble+0x16>
  40136c:	8b 44 24 08          	mov    0x8(%rsp),%eax
  401370:	69 c0 3a cd 00 00    	imul   $0xcd3a,%eax,%eax
  401376:	89 44 24 08          	mov    %eax,0x8(%rsp)
  40137a:	8b 44 24 04          	mov    0x4(%rsp),%eax
  40137e:	69 c0 60 c5 00 00    	imul   $0xc560,%eax,%eax
  401384:	89 44 24 04          	mov    %eax,0x4(%rsp)
  401388:	8b 44 24 18          	mov    0x18(%rsp),%eax
  40138c:	69 c0 e3 65 00 00    	imul   $0x65e3,%eax,%eax
  401392:	89 44 24 18          	mov    %eax,0x18(%rsp)
  401396:	8b 44 24 14          	mov    0x14(%rsp),%eax
  40139a:	69 c0 f7 59 00 00    	imul   $0x59f7,%eax,%eax
  4013a0:	89 44 24 14          	mov    %eax,0x14(%rsp)
  4013a4:	8b 44 24 24          	mov    0x24(%rsp),%eax
  4013a8:	69 c0 c8 10 00 00    	imul   $0x10c8,%eax,%eax
  4013ae:	89 44 24 24          	mov    %eax,0x24(%rsp)
  4013b2:	8b 44 24 04          	mov    0x4(%rsp),%eax
  4013b6:	69 c0 99 7d 00 00    	imul   $0x7d99,%eax,%eax
  4013bc:	89 44 24 04          	mov    %eax,0x4(%rsp)
  4013c0:	8b 44 24 24          	mov    0x24(%rsp),%eax
  4013c4:	69 c0 44 f7 00 00    	imul   $0xf744,%eax,%eax
  4013ca:	89 44 24 24          	mov    %eax,0x24(%rsp)
  4013ce:	8b 44 24 10          	mov    0x10(%rsp),%eax
  4013d2:	69 c0 66 03 00 00    	imul   $0x366,%eax,%eax
  4013d8:	89 44 24 10          	mov    %eax,0x10(%rsp)
  4013dc:	8b 44 24 14          	mov    0x14(%rsp),%eax
  4013e0:	69 c0 5e 47 00 00    	imul   $0x475e,%eax,%eax
  4013e6:	89 44 24 14          	mov    %eax,0x14(%rsp)
  4013ea:	8b 44 24 14          	mov    0x14(%rsp),%eax
  4013ee:	69 c0 bb 9a 00 00    	imul   $0x9abb,%eax,%eax
  4013f4:	89 44 24 14          	mov    %eax,0x14(%rsp)
  4013f8:	8b 44 24 10          	mov    0x10(%rsp),%eax
  4013fc:	69 c0 27 aa 00 00    	imul   $0xaa27,%eax,%eax
  401402:	89 44 24 10          	mov    %eax,0x10(%rsp)
  401406:	8b 44 24 08          	mov    0x8(%rsp),%eax
  40140a:	69 c0 51 08 00 00    	imul   $0x851,%eax,%eax
  401410:	89 44 24 08          	mov    %eax,0x8(%rsp)
  401414:	8b 44 24 10          	mov    0x10(%rsp),%eax
  401418:	69 c0 ca 03 00 00    	imul   $0x3ca,%eax,%eax
  40141e:	89 44 24 10          	mov    %eax,0x10(%rsp)
  401422:	8b 44 24 24          	mov    0x24(%rsp),%eax
  401426:	69 c0 53 1b 00 00    	imul   $0x1b53,%eax,%eax
  40142c:	89 44 24 24          	mov    %eax,0x24(%rsp)
  401430:	8b 44 24 14          	mov    0x14(%rsp),%eax
  401434:	69 c0 7d d5 00 00    	imul   $0xd57d,%eax,%eax
  40143a:	89 44 24 14          	mov    %eax,0x14(%rsp)
  40143e:	8b 44 24 18          	mov    0x18(%rsp),%eax
  401442:	69 c0 c2 f4 00 00    	imul   $0xf4c2,%eax,%eax
  401448:	89 44 24 18          	mov    %eax,0x18(%rsp)
  40144c:	8b 04 24             	mov    (%rsp),%eax
  40144f:	69 c0 e5 fb 00 00    	imul   $0xfbe5,%eax,%eax
  401455:	89 04 24             	mov    %eax,(%rsp)
  401458:	8b 44 24 08          	mov    0x8(%rsp),%eax
  40145c:	69 c0 07 29 00 00    	imul   $0x2907,%eax,%eax
  401462:	89 44 24 08          	mov    %eax,0x8(%rsp)
  401466:	8b 04 24             	mov    (%rsp),%eax
  401469:	69 c0 6c d8 00 00    	imul   $0xd86c,%eax,%eax
  40146f:	89 04 24             	mov    %eax,(%rsp)
  401472:	8b 44 24 04          	mov    0x4(%rsp),%eax
  401476:	69 c0 80 be 00 00    	imul   $0xbe80,%eax,%eax
  40147c:	89 44 24 04          	mov    %eax,0x4(%rsp)
  401480:	8b 44 24 24          	mov    0x24(%rsp),%eax
  401484:	69 c0 80 22 00 00    	imul   $0x2280,%eax,%eax
  40148a:	89 44 24 24          	mov    %eax,0x24(%rsp)
  40148e:	8b 44 24 10          	mov    0x10(%rsp),%eax
  401492:	69 c0 56 28 00 00    	imul   $0x2856,%eax,%eax
  401498:	89 44 24 10          	mov    %eax,0x10(%rsp)
  40149c:	8b 04 24             	mov    (%rsp),%eax
  40149f:	69 c0 a0 bc 00 00    	imul   $0xbca0,%eax,%eax
  4014a5:	89 04 24             	mov    %eax,(%rsp)
  4014a8:	8b 44 24 14          	mov    0x14(%rsp),%eax
  4014ac:	69 c0 4a 7c 00 00    	imul   $0x7c4a,%eax,%eax
  4014b2:	89 44 24 14          	mov    %eax,0x14(%rsp)
  4014b6:	8b 44 24 08          	mov    0x8(%rsp),%eax
  4014ba:	69 c0 2f 79 00 00    	imul   $0x792f,%eax,%eax
  4014c0:	89 44 24 08          	mov    %eax,0x8(%rsp)
  4014c4:	8b 44 24 08          	mov    0x8(%rsp),%eax
  4014c8:	69 c0 ca b6 00 00    	imul   $0xb6ca,%eax,%eax
  4014ce:	89 44 24 08          	mov    %eax,0x8(%rsp)
  4014d2:	8b 44 24 1c          	mov    0x1c(%rsp),%eax
  4014d6:	69 c0 8c 0a 00 00    	imul   $0xa8c,%eax,%eax
  4014dc:	89 44 24 1c          	mov    %eax,0x1c(%rsp)
  4014e0:	8b 44 24 20          	mov    0x20(%rsp),%eax
  4014e4:	69 c0 c2 1d 00 00    	imul   $0x1dc2,%eax,%eax
  4014ea:	89 44 24 20          	mov    %eax,0x20(%rsp)
  4014ee:	8b 44 24 14          	mov    0x14(%rsp),%eax
  4014f2:	69 c0 c5 0d 00 00    	imul   $0xdc5,%eax,%eax
  4014f8:	89 44 24 14          	mov    %eax,0x14(%rsp)
  4014fc:	8b 44 24 1c          	mov    0x1c(%rsp),%eax
  401500:	69 c0 09 ad 00 00    	imul   $0xad09,%eax,%eax
  401506:	89 44 24 1c          	mov    %eax,0x1c(%rsp)
  40150a:	8b 44 24 24          	mov    0x24(%rsp),%eax
  40150e:	69 c0 98 a5 00 00    	imul   $0xa598,%eax,%eax
  401514:	89 44 24 24          	mov    %eax,0x24(%rsp)
  401518:	8b 44 24 24          	mov    0x24(%rsp),%eax
  40151c:	69 c0 fb 85 00 00    	imul   $0x85fb,%eax,%eax
  401522:	89 44 24 24          	mov    %eax,0x24(%rsp)
  401526:	8b 44 24 08          	mov    0x8(%rsp),%eax
  40152a:	69 c0 ed 5b 00 00    	imul   $0x5bed,%eax,%eax
  401530:	89 44 24 08          	mov    %eax,0x8(%rsp)
  401534:	8b 44 24 20          	mov    0x20(%rsp),%eax
  401538:	69 c0 46 03 00 00    	imul   $0x346,%eax,%eax
  40153e:	89 44 24 20          	mov    %eax,0x20(%rsp)
  401542:	8b 44 24 08          	mov    0x8(%rsp),%eax
  401546:	69 c0 00 32 00 00    	imul   $0x3200,%eax,%eax
  40154c:	89 44 24 08          	mov    %eax,0x8(%rsp)
  401550:	8b 44 24 18          	mov    0x18(%rsp),%eax
  401554:	69 c0 8f 1d 00 00    	imul   $0x1d8f,%eax,%eax
  40155a:	89 44 24 18          	mov    %eax,0x18(%rsp)
  40155e:	8b 44 24 04          	mov    0x4(%rsp),%eax
  401562:	69 c0 df fd 00 00    	imul   $0xfddf,%eax,%eax
  401568:	89 44 24 04          	mov    %eax,0x4(%rsp)
  40156c:	8b 44 24 04          	mov    0x4(%rsp),%eax
  401570:	69 c0 44 6e 00 00    	imul   $0x6e44,%eax,%eax
  401576:	89 44 24 04          	mov    %eax,0x4(%rsp)
  40157a:	8b 44 24 04          	mov    0x4(%rsp),%eax
  40157e:	69 c0 a1 71 00 00    	imul   $0x71a1,%eax,%eax
  401584:	89 44 24 04          	mov    %eax,0x4(%rsp)
  401588:	8b 44 24 20          	mov    0x20(%rsp),%eax
  40158c:	69 c0 7e be 00 00    	imul   $0xbe7e,%eax,%eax
  401592:	89 44 24 20          	mov    %eax,0x20(%rsp)
  401596:	8b 44 24 08          	mov    0x8(%rsp),%eax
  40159a:	69 c0 95 01 00 00    	imul   $0x195,%eax,%eax
  4015a0:	89 44 24 08          	mov    %eax,0x8(%rsp)
  4015a4:	8b 44 24 0c          	mov    0xc(%rsp),%eax
  4015a8:	69 c0 26 0e 00 00    	imul   $0xe26,%eax,%eax
  4015ae:	89 44 24 0c          	mov    %eax,0xc(%rsp)
  4015b2:	8b 04 24             	mov    (%rsp),%eax
  4015b5:	69 c0 63 34 00 00    	imul   $0x3463,%eax,%eax
  4015bb:	89 04 24             	mov    %eax,(%rsp)
  4015be:	8b 44 24 0c          	mov    0xc(%rsp),%eax
  4015c2:	69 c0 77 1a 00 00    	imul   $0x1a77,%eax,%eax
  4015c8:	89 44 24 0c          	mov    %eax,0xc(%rsp)
  4015cc:	8b 04 24             	mov    (%rsp),%eax
  4015cf:	69 c0 fd 64 00 00    	imul   $0x64fd,%eax,%eax
  4015d5:	89 04 24             	mov    %eax,(%rsp)
  4015d8:	8b 44 24 14          	mov    0x14(%rsp),%eax
  4015dc:	69 c0 6c 25 00 00    	imul   $0x256c,%eax,%eax
  4015e2:	89 44 24 14          	mov    %eax,0x14(%rsp)
  4015e6:	8b 44 24 1c          	mov    0x1c(%rsp),%eax
  4015ea:	69 c0 4b 69 00 00    	imul   $0x694b,%eax,%eax
  4015f0:	89 44 24 1c          	mov    %eax,0x1c(%rsp)
  4015f4:	8b 04 24             	mov    (%rsp),%eax
  4015f7:	69 c0 12 ac 00 00    	imul   $0xac12,%eax,%eax
  4015fd:	89 04 24             	mov    %eax,(%rsp)
  401600:	8b 04 24             	mov    (%rsp),%eax
  401603:	69 c0 69 5a 00 00    	imul   $0x5a69,%eax,%eax
  401609:	89 04 24             	mov    %eax,(%rsp)
  40160c:	8b 44 24 14          	mov    0x14(%rsp),%eax
  401610:	69 c0 92 f9 00 00    	imul   $0xf992,%eax,%eax
  401616:	89 44 24 14          	mov    %eax,0x14(%rsp)
  40161a:	8b 44 24 24          	mov    0x24(%rsp),%eax
  40161e:	69 c0 1e 71 00 00    	imul   $0x711e,%eax,%eax
  401624:	89 44 24 24          	mov    %eax,0x24(%rsp)
  401628:	8b 44 24 14          	mov    0x14(%rsp),%eax
  40162c:	69 c0 ea e0 00 00    	imul   $0xe0ea,%eax,%eax
  401632:	89 44 24 14          	mov    %eax,0x14(%rsp)
  401636:	8b 44 24 10          	mov    0x10(%rsp),%eax
  40163a:	69 c0 06 5d 00 00    	imul   $0x5d06,%eax,%eax
  401640:	89 44 24 10          	mov    %eax,0x10(%rsp)
  401644:	8b 44 24 14          	mov    0x14(%rsp),%eax
  401648:	69 c0 7d 29 00 00    	imul   $0x297d,%eax,%eax
  40164e:	89 44 24 14          	mov    %eax,0x14(%rsp)
  401652:	8b 44 24 1c          	mov    0x1c(%rsp),%eax
  401656:	69 c0 bd 39 00 00    	imul   $0x39bd,%eax,%eax
  40165c:	89 44 24 1c          	mov    %eax,0x1c(%rsp)
  401660:	8b 44 24 08          	mov    0x8(%rsp),%eax
  401664:	69 c0 77 b9 00 00    	imul   $0xb977,%eax,%eax
  40166a:	89 44 24 08          	mov    %eax,0x8(%rsp)
  40166e:	8b 44 24 24          	mov    0x24(%rsp),%eax
  401672:	69 c0 44 5d 00 00    	imul   $0x5d44,%eax,%eax
  401678:	89 44 24 24          	mov    %eax,0x24(%rsp)
  40167c:	8b 44 24 24          	mov    0x24(%rsp),%eax
  401680:	69 c0 73 47 00 00    	imul   $0x4773,%eax,%eax
  401686:	89 44 24 24          	mov    %eax,0x24(%rsp)
  40168a:	8b 44 24 18          	mov    0x18(%rsp),%eax
  40168e:	69 c0 85 f3 00 00    	imul   $0xf385,%eax,%eax
  401694:	89 44 24 18          	mov    %eax,0x18(%rsp)
  401698:	8b 44 24 10          	mov    0x10(%rsp),%eax
  40169c:	69 c0 d0 d3 00 00    	imul   $0xd3d0,%eax,%eax
  4016a2:	89 44 24 10          	mov    %eax,0x10(%rsp)
  4016a6:	8b 44 24 18          	mov    0x18(%rsp),%eax
  4016aa:	69 c0 6a 29 00 00    	imul   $0x296a,%eax,%eax
  4016b0:	89 44 24 18          	mov    %eax,0x18(%rsp)
  4016b4:	8b 44 24 24          	mov    0x24(%rsp),%eax
  4016b8:	69 c0 17 63 00 00    	imul   $0x6317,%eax,%eax
  4016be:	89 44 24 24          	mov    %eax,0x24(%rsp)
  4016c2:	8b 04 24             	mov    (%rsp),%eax
  4016c5:	69 c0 a3 a4 00 00    	imul   $0xa4a3,%eax,%eax
  4016cb:	89 04 24             	mov    %eax,(%rsp)
  4016ce:	8b 44 24 10          	mov    0x10(%rsp),%eax
  4016d2:	69 c0 ee 57 00 00    	imul   $0x57ee,%eax,%eax
  4016d8:	89 44 24 10          	mov    %eax,0x10(%rsp)
  4016dc:	8b 44 24 08          	mov    0x8(%rsp),%eax
  4016e0:	69 c0 82 be 00 00    	imul   $0xbe82,%eax,%eax
  4016e6:	89 44 24 08          	mov    %eax,0x8(%rsp)
  4016ea:	8b 44 24 0c          	mov    0xc(%rsp),%eax
  4016ee:	69 c0 76 8b 00 00    	imul   $0x8b76,%eax,%eax
  4016f4:	89 44 24 0c          	mov    %eax,0xc(%rsp)
  4016f8:	8b 44 24 08          	mov    0x8(%rsp),%eax
  4016fc:	69 c0 a2 68 00 00    	imul   $0x68a2,%eax,%eax
  401702:	89 44 24 08          	mov    %eax,0x8(%rsp)
  401706:	8b 44 24 20          	mov    0x20(%rsp),%eax
  40170a:	69 c0 9e 9e 00 00    	imul   $0x9e9e,%eax,%eax
  401710:	89 44 24 20          	mov    %eax,0x20(%rsp)
  401714:	8b 44 24 1c          	mov    0x1c(%rsp),%eax
  401718:	69 c0 8e bb 00 00    	imul   $0xbb8e,%eax,%eax
  40171e:	89 44 24 1c          	mov    %eax,0x1c(%rsp)
  401722:	8b 44 24 10          	mov    0x10(%rsp),%eax
  401726:	69 c0 50 94 00 00    	imul   $0x9450,%eax,%eax
  40172c:	89 44 24 10          	mov    %eax,0x10(%rsp)
  401730:	8b 44 24 04          	mov    0x4(%rsp),%eax
  401734:	69 c0 17 b0 00 00    	imul   $0xb017,%eax,%eax
  40173a:	89 44 24 04          	mov    %eax,0x4(%rsp)
  40173e:	8b 44 24 1c          	mov    0x1c(%rsp),%eax
  401742:	69 c0 9e 30 00 00    	imul   $0x309e,%eax,%eax
  401748:	89 44 24 1c          	mov    %eax,0x1c(%rsp)
  40174c:	8b 44 24 10          	mov    0x10(%rsp),%eax
  401750:	69 c0 65 15 00 00    	imul   $0x1565,%eax,%eax
  401756:	89 44 24 10          	mov    %eax,0x10(%rsp)
  40175a:	8b 44 24 08          	mov    0x8(%rsp),%eax
  40175e:	69 c0 02 9f 00 00    	imul   $0x9f02,%eax,%eax
  401764:	89 44 24 08          	mov    %eax,0x8(%rsp)
  401768:	8b 44 24 0c          	mov    0xc(%rsp),%eax
  40176c:	69 c0 fc d9 00 00    	imul   $0xd9fc,%eax,%eax
  401772:	89 44 24 0c          	mov    %eax,0xc(%rsp)
  401776:	8b 44 24 04          	mov    0x4(%rsp),%eax
  40177a:	69 c0 6d 61 00 00    	imul   $0x616d,%eax,%eax
  401780:	89 44 24 04          	mov    %eax,0x4(%rsp)
  401784:	8b 04 24             	mov    (%rsp),%eax
  401787:	69 c0 0f 6c 00 00    	imul   $0x6c0f,%eax,%eax
  40178d:	89 04 24             	mov    %eax,(%rsp)
  401790:	8b 44 24 14          	mov    0x14(%rsp),%eax
  401794:	69 c0 1c 96 00 00    	imul   $0x961c,%eax,%eax
  40179a:	89 44 24 14          	mov    %eax,0x14(%rsp)
  40179e:	8b 44 24 10          	mov    0x10(%rsp),%eax
  4017a2:	69 c0 ae d3 00 00    	imul   $0xd3ae,%eax,%eax
  4017a8:	89 44 24 10          	mov    %eax,0x10(%rsp)
  4017ac:	8b 44 24 0c          	mov    0xc(%rsp),%eax
  4017b0:	69 c0 bf 0f 00 00    	imul   $0xfbf,%eax,%eax
  4017b6:	89 44 24 0c          	mov    %eax,0xc(%rsp)
  4017ba:	8b 44 24 04          	mov    0x4(%rsp),%eax
  4017be:	69 c0 8b 3f 00 00    	imul   $0x3f8b,%eax,%eax
  4017c4:	89 44 24 04          	mov    %eax,0x4(%rsp)
  4017c8:	8b 44 24 14          	mov    0x14(%rsp),%eax
  4017cc:	69 c0 d2 c1 00 00    	imul   $0xc1d2,%eax,%eax
  4017d2:	89 44 24 14          	mov    %eax,0x14(%rsp)
  4017d6:	8b 44 24 18          	mov    0x18(%rsp),%eax
  4017da:	69 c0 95 07 00 00    	imul   $0x795,%eax,%eax
  4017e0:	89 44 24 18          	mov    %eax,0x18(%rsp)
  4017e4:	8b 44 24 10          	mov    0x10(%rsp),%eax
  4017e8:	69 c0 d5 6d 00 00    	imul   $0x6dd5,%eax,%eax
  4017ee:	89 44 24 10          	mov    %eax,0x10(%rsp)
  4017f2:	8b 44 24 04          	mov    0x4(%rsp),%eax
  4017f6:	69 c0 8c 28 00 00    	imul   $0x288c,%eax,%eax
  4017fc:	89 44 24 04          	mov    %eax,0x4(%rsp)
  401800:	8b 44 24 0c          	mov    0xc(%rsp),%eax
  401804:	69 c0 70 b8 00 00    	imul   $0xb870,%eax,%eax
  40180a:	89 44 24 0c          	mov    %eax,0xc(%rsp)
  40180e:	8b 44 24 20          	mov    0x20(%rsp),%eax
  401812:	69 c0 ed 4f 00 00    	imul   $0x4fed,%eax,%eax
  401818:	89 44 24 20          	mov    %eax,0x20(%rsp)
  40181c:	8b 44 24 20          	mov    0x20(%rsp),%eax
  401820:	69 c0 fe e5 00 00    	imul   $0xe5fe,%eax,%eax
  401826:	89 44 24 20          	mov    %eax,0x20(%rsp)
  40182a:	8b 44 24 20          	mov    0x20(%rsp),%eax
  40182e:	69 c0 20 61 00 00    	imul   $0x6120,%eax,%eax
  401834:	89 44 24 20          	mov    %eax,0x20(%rsp)
  401838:	8b 44 24 14          	mov    0x14(%rsp),%eax
  40183c:	69 c0 3c 6e 00 00    	imul   $0x6e3c,%eax,%eax
  401842:	89 44 24 14          	mov    %eax,0x14(%rsp)
  401846:	8b 44 24 04          	mov    0x4(%rsp),%eax
  40184a:	69 c0 d3 f7 00 00    	imul   $0xf7d3,%eax,%eax
  401850:	89 44 24 04          	mov    %eax,0x4(%rsp)
  401854:	8b 44 24 0c          	mov    0xc(%rsp),%eax
  401858:	69 c0 84 3e 00 00    	imul   $0x3e84,%eax,%eax
  40185e:	89 44 24 0c          	mov    %eax,0xc(%rsp)
  401862:	8b 04 24             	mov    (%rsp),%eax
  401865:	69 c0 2e 94 00 00    	imul   $0x942e,%eax,%eax
  40186b:	89 04 24             	mov    %eax,(%rsp)
  40186e:	8b 44 24 10          	mov    0x10(%rsp),%eax
  401872:	69 c0 96 74 00 00    	imul   $0x7496,%eax,%eax
  401878:	89 44 24 10          	mov    %eax,0x10(%rsp)
  40187c:	8b 44 24 04          	mov    0x4(%rsp),%eax
  401880:	69 c0 ab c2 00 00    	imul   $0xc2ab,%eax,%eax
  401886:	89 44 24 04          	mov    %eax,0x4(%rsp)
  40188a:	8b 44 24 20          	mov    0x20(%rsp),%eax
  40188e:	69 c0 0d fa 00 00    	imul   $0xfa0d,%eax,%eax
  401894:	89 44 24 20          	mov    %eax,0x20(%rsp)
  401898:	8b 44 24 1c          	mov    0x1c(%rsp),%eax
  40189c:	69 c0 8b 1f 00 00    	imul   $0x1f8b,%eax,%eax
  4018a2:	89 44 24 1c          	mov    %eax,0x1c(%rsp)
  4018a6:	ba 00 00 00 00       	mov    $0x0,%edx
  4018ab:	b8 00 00 00 00       	mov    $0x0,%eax
  4018b0:	eb 0a                	jmp    4018bc <scramble+0x57b>
  4018b2:	89 d1                	mov    %edx,%ecx
  4018b4:	8b 0c 8c             	mov    (%rsp,%rcx,4),%ecx
  4018b7:	01 c8                	add    %ecx,%eax
  4018b9:	83 c2 01             	add    $0x1,%edx
  4018bc:	83 fa 09             	cmp    $0x9,%edx
  4018bf:	76 f1                	jbe    4018b2 <scramble+0x571>
  4018c1:	48 8b 74 24 28       	mov    0x28(%rsp),%rsi
  4018c6:	64 48 33 34 25 28 00 	xor    %fs:0x28,%rsi
  4018cd:	00 00 
  4018cf:	74 05                	je     4018d6 <scramble+0x595>
  4018d1:	e8 fa f3 ff ff       	callq  400cd0 <__stack_chk_fail@plt>
  4018d6:	48 83 c4 38          	add    $0x38,%rsp
  4018da:	c3                   	retq   

00000000004018db <getbuf>:
  4018db:	48 83 ec 38          	sub    $0x38,%rsp
  4018df:	48 89 e7             	mov    %rsp,%rdi
  4018e2:	e8 7a 02 00 00       	callq  401b61 <Gets>
  4018e7:	b8 01 00 00 00       	mov    $0x1,%eax
  4018ec:	48 83 c4 38          	add    $0x38,%rsp
  4018f0:	c3                   	retq   

00000000004018f1 <touch1>:
  4018f1:	48 83 ec 08          	sub    $0x8,%rsp
  4018f5:	c7 05 5d 3c 20 00 01 	movl   $0x1,0x203c5d(%rip)        # 60555c <vlevel>
  4018fc:	00 00 00 
  4018ff:	bf 3e 32 40 00       	mov    $0x40323e,%edi
  401904:	e8 a7 f3 ff ff       	callq  400cb0 <puts@plt>
  401909:	bf 01 00 00 00       	mov    $0x1,%edi
  40190e:	e8 93 04 00 00       	callq  401da6 <validate>
  401913:	bf 00 00 00 00       	mov    $0x0,%edi
  401918:	e8 13 f5 ff ff       	callq  400e30 <exit@plt>

000000000040191d <touch2>:
  40191d:	48 83 ec 08          	sub    $0x8,%rsp
  401921:	89 fa                	mov    %edi,%edx
  401923:	c7 05 2f 3c 20 00 02 	movl   $0x2,0x203c2f(%rip)        # 60555c <vlevel>
  40192a:	00 00 00 
  40192d:	3b 3d 31 3c 20 00    	cmp    0x203c31(%rip),%edi        # 605564 <cookie>
  401933:	75 20                	jne    401955 <touch2+0x38>
  401935:	be 60 32 40 00       	mov    $0x403260,%esi
  40193a:	bf 01 00 00 00       	mov    $0x1,%edi
  40193f:	b8 00 00 00 00       	mov    $0x0,%eax
  401944:	e8 97 f4 ff ff       	callq  400de0 <__printf_chk@plt>
  401949:	bf 02 00 00 00       	mov    $0x2,%edi
  40194e:	e8 53 04 00 00       	callq  401da6 <validate>
  401953:	eb 1e                	jmp    401973 <touch2+0x56>
  401955:	be 88 32 40 00       	mov    $0x403288,%esi
  40195a:	bf 01 00 00 00       	mov    $0x1,%edi
  40195f:	b8 00 00 00 00       	mov    $0x0,%eax
  401964:	e8 77 f4 ff ff       	callq  400de0 <__printf_chk@plt>
  401969:	bf 02 00 00 00       	mov    $0x2,%edi
  40196e:	e8 f5 04 00 00       	callq  401e68 <fail>
  401973:	bf 00 00 00 00       	mov    $0x0,%edi
  401978:	e8 b3 f4 ff ff       	callq  400e30 <exit@plt>

000000000040197d <hexmatch>:
  40197d:	41 54                	push   %r12
  40197f:	55                   	push   %rbp
  401980:	53                   	push   %rbx
  401981:	48 83 c4 80          	add    $0xffffffffffffff80,%rsp
  401985:	89 fd                	mov    %edi,%ebp
  401987:	48 89 f3             	mov    %rsi,%rbx
  40198a:	64 48 8b 04 25 28 00 	mov    %fs:0x28,%rax
  401991:	00 00 
  401993:	48 89 44 24 78       	mov    %rax,0x78(%rsp)
  401998:	31 c0                	xor    %eax,%eax
  40199a:	e8 01 f4 ff ff       	callq  400da0 <random@plt>
  40199f:	48 89 c1             	mov    %rax,%rcx
  4019a2:	48 ba 0b d7 a3 70 3d 	movabs $0xa3d70a3d70a3d70b,%rdx
  4019a9:	0a d7 a3 
  4019ac:	48 f7 ea             	imul   %rdx
  4019af:	48 01 ca             	add    %rcx,%rdx
  4019b2:	48 c1 fa 06          	sar    $0x6,%rdx
  4019b6:	48 89 c8             	mov    %rcx,%rax
  4019b9:	48 c1 f8 3f          	sar    $0x3f,%rax
  4019bd:	48 29 c2             	sub    %rax,%rdx
  4019c0:	48 8d 04 92          	lea    (%rdx,%rdx,4),%rax
  4019c4:	48 8d 04 80          	lea    (%rax,%rax,4),%rax
  4019c8:	48 c1 e0 02          	shl    $0x2,%rax
  4019cc:	48 29 c1             	sub    %rax,%rcx
  4019cf:	4c 8d 24 0c          	lea    (%rsp,%rcx,1),%r12
  4019d3:	41 89 e8             	mov    %ebp,%r8d
  4019d6:	b9 5b 32 40 00       	mov    $0x40325b,%ecx
  4019db:	48 c7 c2 ff ff ff ff 	mov    $0xffffffffffffffff,%rdx
  4019e2:	be 01 00 00 00       	mov    $0x1,%esi
  4019e7:	4c 89 e7             	mov    %r12,%rdi
  4019ea:	b8 00 00 00 00       	mov    $0x0,%eax
  4019ef:	e8 6c f4 ff ff       	callq  400e60 <__sprintf_chk@plt>
  4019f4:	ba 09 00 00 00       	mov    $0x9,%edx
  4019f9:	4c 89 e6             	mov    %r12,%rsi
  4019fc:	48 89 df             	mov    %rbx,%rdi
  4019ff:	e8 8c f2 ff ff       	callq  400c90 <strncmp@plt>
  401a04:	85 c0                	test   %eax,%eax
  401a06:	0f 94 c0             	sete   %al
  401a09:	0f b6 c0             	movzbl %al,%eax
  401a0c:	48 8b 5c 24 78       	mov    0x78(%rsp),%rbx
  401a11:	64 48 33 1c 25 28 00 	xor    %fs:0x28,%rbx
  401a18:	00 00 
  401a1a:	74 05                	je     401a21 <hexmatch+0xa4>
  401a1c:	e8 af f2 ff ff       	callq  400cd0 <__stack_chk_fail@plt>
  401a21:	48 83 ec 80          	sub    $0xffffffffffffff80,%rsp
  401a25:	5b                   	pop    %rbx
  401a26:	5d                   	pop    %rbp
  401a27:	41 5c                	pop    %r12
  401a29:	c3                   	retq   

0000000000401a2a <touch3>:
  401a2a:	53                   	push   %rbx
  401a2b:	48 89 fb             	mov    %rdi,%rbx
  401a2e:	c7 05 24 3b 20 00 03 	movl   $0x3,0x203b24(%rip)        # 60555c <vlevel>
  401a35:	00 00 00 
  401a38:	48 89 fe             	mov    %rdi,%rsi
  401a3b:	8b 3d 23 3b 20 00    	mov    0x203b23(%rip),%edi        # 605564 <cookie>
  401a41:	e8 37 ff ff ff       	callq  40197d <hexmatch>
  401a46:	85 c0                	test   %eax,%eax
  401a48:	74 23                	je     401a6d <touch3+0x43>
  401a4a:	48 89 da             	mov    %rbx,%rdx
  401a4d:	be b0 32 40 00       	mov    $0x4032b0,%esi
  401a52:	bf 01 00 00 00       	mov    $0x1,%edi
  401a57:	b8 00 00 00 00       	mov    $0x0,%eax
  401a5c:	e8 7f f3 ff ff       	callq  400de0 <__printf_chk@plt>
  401a61:	bf 03 00 00 00       	mov    $0x3,%edi
  401a66:	e8 3b 03 00 00       	callq  401da6 <validate>
  401a6b:	eb 21                	jmp    401a8e <touch3+0x64>
  401a6d:	48 89 da             	mov    %rbx,%rdx
  401a70:	be d8 32 40 00       	mov    $0x4032d8,%esi
  401a75:	bf 01 00 00 00       	mov    $0x1,%edi
  401a7a:	b8 00 00 00 00       	mov    $0x0,%eax
  401a7f:	e8 5c f3 ff ff       	callq  400de0 <__printf_chk@plt>
  401a84:	bf 03 00 00 00       	mov    $0x3,%edi
  401a89:	e8 da 03 00 00       	callq  401e68 <fail>
  401a8e:	bf 00 00 00 00       	mov    $0x0,%edi
  401a93:	e8 98 f3 ff ff       	callq  400e30 <exit@plt>

0000000000401a98 <test>:
  401a98:	48 83 ec 08          	sub    $0x8,%rsp
  401a9c:	b8 00 00 00 00       	mov    $0x0,%eax
  401aa1:	e8 35 fe ff ff       	callq  4018db <getbuf>
  401aa6:	89 c2                	mov    %eax,%edx
  401aa8:	be 00 33 40 00       	mov    $0x403300,%esi
  401aad:	bf 01 00 00 00       	mov    $0x1,%edi
  401ab2:	b8 00 00 00 00       	mov    $0x0,%eax
  401ab7:	e8 24 f3 ff ff       	callq  400de0 <__printf_chk@plt>
  401abc:	48 83 c4 08          	add    $0x8,%rsp
  401ac0:	c3                   	retq   

0000000000401ac1 <save_char>:
  401ac1:	8b 05 bd 46 20 00    	mov    0x2046bd(%rip),%eax        # 606184 <gets_cnt>
  401ac7:	3d ff 03 00 00       	cmp    $0x3ff,%eax
  401acc:	7f 49                	jg     401b17 <save_char+0x56>
  401ace:	8d 14 40             	lea    (%rax,%rax,2),%edx
  401ad1:	89 f9                	mov    %edi,%ecx
  401ad3:	c0 e9 04             	shr    $0x4,%cl
  401ad6:	83 e1 0f             	and    $0xf,%ecx
  401ad9:	0f b6 b1 20 36 40 00 	movzbl 0x403620(%rcx),%esi
  401ae0:	48 63 ca             	movslq %edx,%rcx
  401ae3:	40 88 b1 80 55 60 00 	mov    %sil,0x605580(%rcx)
  401aea:	8d 4a 01             	lea    0x1(%rdx),%ecx
  401aed:	83 e7 0f             	and    $0xf,%edi
  401af0:	0f b6 b7 20 36 40 00 	movzbl 0x403620(%rdi),%esi
  401af7:	48 63 c9             	movslq %ecx,%rcx
  401afa:	40 88 b1 80 55 60 00 	mov    %sil,0x605580(%rcx)
  401b01:	83 c2 02             	add    $0x2,%edx
  401b04:	48 63 d2             	movslq %edx,%rdx
  401b07:	c6 82 80 55 60 00 20 	movb   $0x20,0x605580(%rdx)
  401b0e:	83 c0 01             	add    $0x1,%eax
  401b11:	89 05 6d 46 20 00    	mov    %eax,0x20466d(%rip)        # 606184 <gets_cnt>
  401b17:	f3 c3                	repz retq 

0000000000401b19 <save_term>:
  401b19:	8b 05 65 46 20 00    	mov    0x204665(%rip),%eax        # 606184 <gets_cnt>
  401b1f:	8d 04 40             	lea    (%rax,%rax,2),%eax
  401b22:	48 98                	cltq   
  401b24:	c6 80 80 55 60 00 00 	movb   $0x0,0x605580(%rax)
  401b2b:	c3                   	retq   

0000000000401b2c <check_fail>:
  401b2c:	48 83 ec 08          	sub    $0x8,%rsp
  401b30:	0f be 15 51 46 20 00 	movsbl 0x204651(%rip),%edx        # 606188 <target_prefix>
  401b37:	41 b8 80 55 60 00    	mov    $0x605580,%r8d
  401b3d:	8b 0d 15 3a 20 00    	mov    0x203a15(%rip),%ecx        # 605558 <check_level>
  401b43:	be 23 33 40 00       	mov    $0x403323,%esi
  401b48:	bf 01 00 00 00       	mov    $0x1,%edi
  401b4d:	b8 00 00 00 00       	mov    $0x0,%eax
  401b52:	e8 89 f2 ff ff       	callq  400de0 <__printf_chk@plt>
  401b57:	bf 01 00 00 00       	mov    $0x1,%edi
  401b5c:	e8 cf f2 ff ff       	callq  400e30 <exit@plt>

0000000000401b61 <Gets>:
  401b61:	41 54                	push   %r12
  401b63:	55                   	push   %rbp
  401b64:	53                   	push   %rbx
  401b65:	49 89 fc             	mov    %rdi,%r12
  401b68:	c7 05 12 46 20 00 00 	movl   $0x0,0x204612(%rip)        # 606184 <gets_cnt>
  401b6f:	00 00 00 
  401b72:	48 89 fb             	mov    %rdi,%rbx
  401b75:	eb 11                	jmp    401b88 <Gets+0x27>
  401b77:	48 8d 6b 01          	lea    0x1(%rbx),%rbp
  401b7b:	88 03                	mov    %al,(%rbx)
  401b7d:	0f b6 f8             	movzbl %al,%edi
  401b80:	e8 3c ff ff ff       	callq  401ac1 <save_char>
  401b85:	48 89 eb             	mov    %rbp,%rbx
  401b88:	48 8b 3d c1 39 20 00 	mov    0x2039c1(%rip),%rdi        # 605550 <infile>
  401b8f:	e8 1c f2 ff ff       	callq  400db0 <_IO_getc@plt>
  401b94:	83 f8 ff             	cmp    $0xffffffff,%eax
  401b97:	74 05                	je     401b9e <Gets+0x3d>
  401b99:	83 f8 0a             	cmp    $0xa,%eax
  401b9c:	75 d9                	jne    401b77 <Gets+0x16>
  401b9e:	c6 03 00             	movb   $0x0,(%rbx)
  401ba1:	b8 00 00 00 00       	mov    $0x0,%eax
  401ba6:	e8 6e ff ff ff       	callq  401b19 <save_term>
  401bab:	4c 89 e0             	mov    %r12,%rax
  401bae:	5b                   	pop    %rbx
  401baf:	5d                   	pop    %rbp
  401bb0:	41 5c                	pop    %r12
  401bb2:	c3                   	retq   

0000000000401bb3 <notify_server>:
  401bb3:	53                   	push   %rbx
  401bb4:	48 81 ec 10 40 00 00 	sub    $0x4010,%rsp
  401bbb:	64 48 8b 04 25 28 00 	mov    %fs:0x28,%rax
  401bc2:	00 00 
  401bc4:	48 89 84 24 08 40 00 	mov    %rax,0x4008(%rsp)
  401bcb:	00 
  401bcc:	31 c0                	xor    %eax,%eax
  401bce:	83 3d 93 39 20 00 00 	cmpl   $0x0,0x203993(%rip)        # 605568 <is_checker>
  401bd5:	0f 85 aa 01 00 00    	jne    401d85 <notify_server+0x1d2>
  401bdb:	89 fb                	mov    %edi,%ebx
  401bdd:	8b 05 a1 45 20 00    	mov    0x2045a1(%rip),%eax        # 606184 <gets_cnt>
  401be3:	83 c0 64             	add    $0x64,%eax
  401be6:	3d 00 20 00 00       	cmp    $0x2000,%eax
  401beb:	7e 1e                	jle    401c0b <notify_server+0x58>
  401bed:	be 58 34 40 00       	mov    $0x403458,%esi
  401bf2:	bf 01 00 00 00       	mov    $0x1,%edi
  401bf7:	b8 00 00 00 00       	mov    $0x0,%eax
  401bfc:	e8 df f1 ff ff       	callq  400de0 <__printf_chk@plt>
  401c01:	bf 01 00 00 00       	mov    $0x1,%edi
  401c06:	e8 25 f2 ff ff       	callq  400e30 <exit@plt>
  401c0b:	0f be 05 76 45 20 00 	movsbl 0x204576(%rip),%eax        # 606188 <target_prefix>
  401c12:	83 3d cf 38 20 00 00 	cmpl   $0x0,0x2038cf(%rip)        # 6054e8 <notify>
  401c19:	74 08                	je     401c23 <notify_server+0x70>
  401c1b:	8b 15 3f 39 20 00    	mov    0x20393f(%rip),%edx        # 605560 <authkey>
  401c21:	eb 05                	jmp    401c28 <notify_server+0x75>
  401c23:	ba ff ff ff ff       	mov    $0xffffffff,%edx
  401c28:	85 db                	test   %ebx,%ebx
  401c2a:	74 08                	je     401c34 <notify_server+0x81>
  401c2c:	41 b9 39 33 40 00    	mov    $0x403339,%r9d
  401c32:	eb 06                	jmp    401c3a <notify_server+0x87>
  401c34:	41 b9 3e 33 40 00    	mov    $0x40333e,%r9d
  401c3a:	68 80 55 60 00       	pushq  $0x605580
  401c3f:	56                   	push   %rsi
  401c40:	50                   	push   %rax
  401c41:	52                   	push   %rdx
  401c42:	44 8b 05 3f 35 20 00 	mov    0x20353f(%rip),%r8d        # 605188 <target_id>
  401c49:	b9 43 33 40 00       	mov    $0x403343,%ecx
  401c4e:	ba 00 20 00 00       	mov    $0x2000,%edx
  401c53:	be 01 00 00 00       	mov    $0x1,%esi
  401c58:	48 8d 7c 24 20       	lea    0x20(%rsp),%rdi
  401c5d:	b8 00 00 00 00       	mov    $0x0,%eax
  401c62:	e8 f9 f1 ff ff       	callq  400e60 <__sprintf_chk@plt>
  401c67:	48 83 c4 20          	add    $0x20,%rsp
  401c6b:	83 3d 76 38 20 00 00 	cmpl   $0x0,0x203876(%rip)        # 6054e8 <notify>
  401c72:	0f 84 81 00 00 00    	je     401cf9 <notify_server+0x146>
  401c78:	85 db                	test   %ebx,%ebx
  401c7a:	74 6e                	je     401cea <notify_server+0x137>
  401c7c:	4c 8d 8c 24 00 20 00 	lea    0x2000(%rsp),%r9
  401c83:	00 
  401c84:	41 b8 00 00 00 00    	mov    $0x0,%r8d
  401c8a:	48 89 e1             	mov    %rsp,%rcx
  401c8d:	48 8b 15 fc 34 20 00 	mov    0x2034fc(%rip),%rdx        # 605190 <lab>
  401c94:	48 8b 35 fd 34 20 00 	mov    0x2034fd(%rip),%rsi        # 605198 <course>
  401c9b:	48 8b 3d de 34 20 00 	mov    0x2034de(%rip),%rdi        # 605180 <user_id>
  401ca2:	e8 e5 10 00 00       	callq  402d8c <driver_post>
  401ca7:	85 c0                	test   %eax,%eax
  401ca9:	79 26                	jns    401cd1 <notify_server+0x11e>
  401cab:	48 8d 94 24 00 20 00 	lea    0x2000(%rsp),%rdx
  401cb2:	00 
  401cb3:	be 5f 33 40 00       	mov    $0x40335f,%esi
  401cb8:	bf 01 00 00 00       	mov    $0x1,%edi
  401cbd:	b8 00 00 00 00       	mov    $0x0,%eax
  401cc2:	e8 19 f1 ff ff       	callq  400de0 <__printf_chk@plt>
  401cc7:	bf 01 00 00 00       	mov    $0x1,%edi
  401ccc:	e8 5f f1 ff ff       	callq  400e30 <exit@plt>
  401cd1:	bf 88 34 40 00       	mov    $0x403488,%edi
  401cd6:	e8 d5 ef ff ff       	callq  400cb0 <puts@plt>
  401cdb:	bf 6b 33 40 00       	mov    $0x40336b,%edi
  401ce0:	e8 cb ef ff ff       	callq  400cb0 <puts@plt>
  401ce5:	e9 9b 00 00 00       	jmpq   401d85 <notify_server+0x1d2>
  401cea:	bf 75 33 40 00       	mov    $0x403375,%edi
  401cef:	e8 bc ef ff ff       	callq  400cb0 <puts@plt>
  401cf4:	e9 8c 00 00 00       	jmpq   401d85 <notify_server+0x1d2>
  401cf9:	85 db                	test   %ebx,%ebx
  401cfb:	74 07                	je     401d04 <notify_server+0x151>
  401cfd:	ba 39 33 40 00       	mov    $0x403339,%edx
  401d02:	eb 05                	jmp    401d09 <notify_server+0x156>
  401d04:	ba 3e 33 40 00       	mov    $0x40333e,%edx
  401d09:	be c0 34 40 00       	mov    $0x4034c0,%esi
  401d0e:	bf 01 00 00 00       	mov    $0x1,%edi
  401d13:	b8 00 00 00 00       	mov    $0x0,%eax
  401d18:	e8 c3 f0 ff ff       	callq  400de0 <__printf_chk@plt>
  401d1d:	48 8b 15 5c 34 20 00 	mov    0x20345c(%rip),%rdx        # 605180 <user_id>
  401d24:	be 7c 33 40 00       	mov    $0x40337c,%esi
  401d29:	bf 01 00 00 00       	mov    $0x1,%edi
  401d2e:	b8 00 00 00 00       	mov    $0x0,%eax
  401d33:	e8 a8 f0 ff ff       	callq  400de0 <__printf_chk@plt>
  401d38:	48 8b 15 59 34 20 00 	mov    0x203459(%rip),%rdx        # 605198 <course>
  401d3f:	be 89 33 40 00       	mov    $0x403389,%esi
  401d44:	bf 01 00 00 00       	mov    $0x1,%edi
  401d49:	b8 00 00 00 00       	mov    $0x0,%eax
  401d4e:	e8 8d f0 ff ff       	callq  400de0 <__printf_chk@plt>
  401d53:	48 8b 15 36 34 20 00 	mov    0x203436(%rip),%rdx        # 605190 <lab>
  401d5a:	be 95 33 40 00       	mov    $0x403395,%esi
  401d5f:	bf 01 00 00 00       	mov    $0x1,%edi
  401d64:	b8 00 00 00 00       	mov    $0x0,%eax
  401d69:	e8 72 f0 ff ff       	callq  400de0 <__printf_chk@plt>
  401d6e:	48 89 e2             	mov    %rsp,%rdx
  401d71:	be 9e 33 40 00       	mov    $0x40339e,%esi
  401d76:	bf 01 00 00 00       	mov    $0x1,%edi
  401d7b:	b8 00 00 00 00       	mov    $0x0,%eax
  401d80:	e8 5b f0 ff ff       	callq  400de0 <__printf_chk@plt>
  401d85:	48 8b 84 24 08 40 00 	mov    0x4008(%rsp),%rax
  401d8c:	00 
  401d8d:	64 48 33 04 25 28 00 	xor    %fs:0x28,%rax
  401d94:	00 00 
  401d96:	74 05                	je     401d9d <notify_server+0x1ea>
  401d98:	e8 33 ef ff ff       	callq  400cd0 <__stack_chk_fail@plt>
  401d9d:	48 81 c4 10 40 00 00 	add    $0x4010,%rsp
  401da4:	5b                   	pop    %rbx
  401da5:	c3                   	retq   

0000000000401da6 <validate>:
  401da6:	53                   	push   %rbx
  401da7:	89 fb                	mov    %edi,%ebx
  401da9:	83 3d b8 37 20 00 00 	cmpl   $0x0,0x2037b8(%rip)        # 605568 <is_checker>
  401db0:	74 6b                	je     401e1d <validate+0x77>
  401db2:	39 3d a4 37 20 00    	cmp    %edi,0x2037a4(%rip)        # 60555c <vlevel>
  401db8:	74 14                	je     401dce <validate+0x28>
  401dba:	bf aa 33 40 00       	mov    $0x4033aa,%edi
  401dbf:	e8 ec ee ff ff       	callq  400cb0 <puts@plt>
  401dc4:	b8 00 00 00 00       	mov    $0x0,%eax
  401dc9:	e8 5e fd ff ff       	callq  401b2c <check_fail>
  401dce:	8b 15 84 37 20 00    	mov    0x203784(%rip),%edx        # 605558 <check_level>
  401dd4:	39 fa                	cmp    %edi,%edx
  401dd6:	74 20                	je     401df8 <validate+0x52>
  401dd8:	89 f9                	mov    %edi,%ecx
  401dda:	be e8 34 40 00       	mov    $0x4034e8,%esi
  401ddf:	bf 01 00 00 00       	mov    $0x1,%edi
  401de4:	b8 00 00 00 00       	mov    $0x0,%eax
  401de9:	e8 f2 ef ff ff       	callq  400de0 <__printf_chk@plt>
  401dee:	b8 00 00 00 00       	mov    $0x0,%eax
  401df3:	e8 34 fd ff ff       	callq  401b2c <check_fail>
  401df8:	0f be 15 89 43 20 00 	movsbl 0x204389(%rip),%edx        # 606188 <target_prefix>
  401dff:	41 b8 80 55 60 00    	mov    $0x605580,%r8d
  401e05:	89 f9                	mov    %edi,%ecx
  401e07:	be c8 33 40 00       	mov    $0x4033c8,%esi
  401e0c:	bf 01 00 00 00       	mov    $0x1,%edi
  401e11:	b8 00 00 00 00       	mov    $0x0,%eax
  401e16:	e8 c5 ef ff ff       	callq  400de0 <__printf_chk@plt>
  401e1b:	eb 49                	jmp    401e66 <validate+0xc0>
  401e1d:	39 3d 39 37 20 00    	cmp    %edi,0x203739(%rip)        # 60555c <vlevel>
  401e23:	74 18                	je     401e3d <validate+0x97>
  401e25:	bf aa 33 40 00       	mov    $0x4033aa,%edi
  401e2a:	e8 81 ee ff ff       	callq  400cb0 <puts@plt>
  401e2f:	89 de                	mov    %ebx,%esi
  401e31:	bf 00 00 00 00       	mov    $0x0,%edi
  401e36:	e8 78 fd ff ff       	callq  401bb3 <notify_server>
  401e3b:	eb 29                	jmp    401e66 <validate+0xc0>
  401e3d:	0f be 0d 44 43 20 00 	movsbl 0x204344(%rip),%ecx        # 606188 <target_prefix>
  401e44:	89 fa                	mov    %edi,%edx
  401e46:	be 10 35 40 00       	mov    $0x403510,%esi
  401e4b:	bf 01 00 00 00       	mov    $0x1,%edi
  401e50:	b8 00 00 00 00       	mov    $0x0,%eax
  401e55:	e8 86 ef ff ff       	callq  400de0 <__printf_chk@plt>
  401e5a:	89 de                	mov    %ebx,%esi
  401e5c:	bf 01 00 00 00       	mov    $0x1,%edi
  401e61:	e8 4d fd ff ff       	callq  401bb3 <notify_server>
  401e66:	5b                   	pop    %rbx
  401e67:	c3                   	retq   

0000000000401e68 <fail>:
  401e68:	48 83 ec 08          	sub    $0x8,%rsp
  401e6c:	83 3d f5 36 20 00 00 	cmpl   $0x0,0x2036f5(%rip)        # 605568 <is_checker>
  401e73:	74 0a                	je     401e7f <fail+0x17>
  401e75:	b8 00 00 00 00       	mov    $0x0,%eax
  401e7a:	e8 ad fc ff ff       	callq  401b2c <check_fail>
  401e7f:	89 fe                	mov    %edi,%esi
  401e81:	bf 00 00 00 00       	mov    $0x0,%edi
  401e86:	e8 28 fd ff ff       	callq  401bb3 <notify_server>
  401e8b:	48 83 c4 08          	add    $0x8,%rsp
  401e8f:	c3                   	retq   

0000000000401e90 <bushandler>:
  401e90:	48 83 ec 08          	sub    $0x8,%rsp
  401e94:	83 3d cd 36 20 00 00 	cmpl   $0x0,0x2036cd(%rip)        # 605568 <is_checker>
  401e9b:	74 14                	je     401eb1 <bushandler+0x21>
  401e9d:	bf dd 33 40 00       	mov    $0x4033dd,%edi
  401ea2:	e8 09 ee ff ff       	callq  400cb0 <puts@plt>
  401ea7:	b8 00 00 00 00       	mov    $0x0,%eax
  401eac:	e8 7b fc ff ff       	callq  401b2c <check_fail>
  401eb1:	bf 48 35 40 00       	mov    $0x403548,%edi
  401eb6:	e8 f5 ed ff ff       	callq  400cb0 <puts@plt>
  401ebb:	bf e7 33 40 00       	mov    $0x4033e7,%edi
  401ec0:	e8 eb ed ff ff       	callq  400cb0 <puts@plt>
  401ec5:	be 00 00 00 00       	mov    $0x0,%esi
  401eca:	bf 00 00 00 00       	mov    $0x0,%edi
  401ecf:	e8 df fc ff ff       	callq  401bb3 <notify_server>
  401ed4:	bf 01 00 00 00       	mov    $0x1,%edi
  401ed9:	e8 52 ef ff ff       	callq  400e30 <exit@plt>

0000000000401ede <seghandler>:
  401ede:	48 83 ec 08          	sub    $0x8,%rsp
  401ee2:	83 3d 7f 36 20 00 00 	cmpl   $0x0,0x20367f(%rip)        # 605568 <is_checker>
  401ee9:	74 14                	je     401eff <seghandler+0x21>
  401eeb:	bf fd 33 40 00       	mov    $0x4033fd,%edi
  401ef0:	e8 bb ed ff ff       	callq  400cb0 <puts@plt>
  401ef5:	b8 00 00 00 00       	mov    $0x0,%eax
  401efa:	e8 2d fc ff ff       	callq  401b2c <check_fail>
  401eff:	bf 68 35 40 00       	mov    $0x403568,%edi
  401f04:	e8 a7 ed ff ff       	callq  400cb0 <puts@plt>
  401f09:	bf e7 33 40 00       	mov    $0x4033e7,%edi
  401f0e:	e8 9d ed ff ff       	callq  400cb0 <puts@plt>
  401f13:	be 00 00 00 00       	mov    $0x0,%esi
  401f18:	bf 00 00 00 00       	mov    $0x0,%edi
  401f1d:	e8 91 fc ff ff       	callq  401bb3 <notify_server>
  401f22:	bf 01 00 00 00       	mov    $0x1,%edi
  401f27:	e8 04 ef ff ff       	callq  400e30 <exit@plt>

0000000000401f2c <illegalhandler>:
  401f2c:	48 83 ec 08          	sub    $0x8,%rsp
  401f30:	83 3d 31 36 20 00 00 	cmpl   $0x0,0x203631(%rip)        # 605568 <is_checker>
  401f37:	74 14                	je     401f4d <illegalhandler+0x21>
  401f39:	bf 10 34 40 00       	mov    $0x403410,%edi
  401f3e:	e8 6d ed ff ff       	callq  400cb0 <puts@plt>
  401f43:	b8 00 00 00 00       	mov    $0x0,%eax
  401f48:	e8 df fb ff ff       	callq  401b2c <check_fail>
  401f4d:	bf 90 35 40 00       	mov    $0x403590,%edi
  401f52:	e8 59 ed ff ff       	callq  400cb0 <puts@plt>
  401f57:	bf e7 33 40 00       	mov    $0x4033e7,%edi
  401f5c:	e8 4f ed ff ff       	callq  400cb0 <puts@plt>
  401f61:	be 00 00 00 00       	mov    $0x0,%esi
  401f66:	bf 00 00 00 00       	mov    $0x0,%edi
  401f6b:	e8 43 fc ff ff       	callq  401bb3 <notify_server>
  401f70:	bf 01 00 00 00       	mov    $0x1,%edi
  401f75:	e8 b6 ee ff ff       	callq  400e30 <exit@plt>

0000000000401f7a <sigalrmhandler>:
  401f7a:	48 83 ec 08          	sub    $0x8,%rsp
  401f7e:	83 3d e3 35 20 00 00 	cmpl   $0x0,0x2035e3(%rip)        # 605568 <is_checker>
  401f85:	74 14                	je     401f9b <sigalrmhandler+0x21>
  401f87:	bf 24 34 40 00       	mov    $0x403424,%edi
  401f8c:	e8 1f ed ff ff       	callq  400cb0 <puts@plt>
  401f91:	b8 00 00 00 00       	mov    $0x0,%eax
  401f96:	e8 91 fb ff ff       	callq  401b2c <check_fail>
  401f9b:	ba 05 00 00 00       	mov    $0x5,%edx
  401fa0:	be c0 35 40 00       	mov    $0x4035c0,%esi
  401fa5:	bf 01 00 00 00       	mov    $0x1,%edi
  401faa:	b8 00 00 00 00       	mov    $0x0,%eax
  401faf:	e8 2c ee ff ff       	callq  400de0 <__printf_chk@plt>
  401fb4:	be 00 00 00 00       	mov    $0x0,%esi
  401fb9:	bf 00 00 00 00       	mov    $0x0,%edi
  401fbe:	e8 f0 fb ff ff       	callq  401bb3 <notify_server>
  401fc3:	bf 01 00 00 00       	mov    $0x1,%edi
  401fc8:	e8 63 ee ff ff       	callq  400e30 <exit@plt>

0000000000401fcd <launch>:
  401fcd:	55                   	push   %rbp
  401fce:	48 89 e5             	mov    %rsp,%rbp
  401fd1:	48 83 ec 10          	sub    $0x10,%rsp
  401fd5:	48 89 fa             	mov    %rdi,%rdx
  401fd8:	64 48 8b 04 25 28 00 	mov    %fs:0x28,%rax
  401fdf:	00 00 
  401fe1:	48 89 45 f8          	mov    %rax,-0x8(%rbp)
  401fe5:	31 c0                	xor    %eax,%eax
  401fe7:	48 8d 47 1e          	lea    0x1e(%rdi),%rax
  401feb:	48 83 e0 f0          	and    $0xfffffffffffffff0,%rax
  401fef:	48 29 c4             	sub    %rax,%rsp
  401ff2:	48 8d 44 24 0f       	lea    0xf(%rsp),%rax
  401ff7:	48 83 e0 f0          	and    $0xfffffffffffffff0,%rax
  401ffb:	48 89 c7             	mov    %rax,%rdi
  401ffe:	be f4 00 00 00       	mov    $0xf4,%esi
  402003:	e8 e8 ec ff ff       	callq  400cf0 <memset@plt>
  402008:	48 8b 05 f1 34 20 00 	mov    0x2034f1(%rip),%rax        # 605500 <stdin@@GLIBC_2.2.5>
  40200f:	48 39 05 3a 35 20 00 	cmp    %rax,0x20353a(%rip)        # 605550 <infile>
  402016:	75 14                	jne    40202c <launch+0x5f>
  402018:	be 2c 34 40 00       	mov    $0x40342c,%esi
  40201d:	bf 01 00 00 00       	mov    $0x1,%edi
  402022:	b8 00 00 00 00       	mov    $0x0,%eax
  402027:	e8 b4 ed ff ff       	callq  400de0 <__printf_chk@plt>
  40202c:	c7 05 26 35 20 00 00 	movl   $0x0,0x203526(%rip)        # 60555c <vlevel>
  402033:	00 00 00 
  402036:	b8 00 00 00 00       	mov    $0x0,%eax
  40203b:	e8 58 fa ff ff       	callq  401a98 <test>
  402040:	83 3d 21 35 20 00 00 	cmpl   $0x0,0x203521(%rip)        # 605568 <is_checker>
  402047:	74 14                	je     40205d <launch+0x90>
  402049:	bf 39 34 40 00       	mov    $0x403439,%edi
  40204e:	e8 5d ec ff ff       	callq  400cb0 <puts@plt>
  402053:	b8 00 00 00 00       	mov    $0x0,%eax
  402058:	e8 cf fa ff ff       	callq  401b2c <check_fail>
  40205d:	bf 44 34 40 00       	mov    $0x403444,%edi
  402062:	e8 49 ec ff ff       	callq  400cb0 <puts@plt>
  402067:	48 8b 45 f8          	mov    -0x8(%rbp),%rax
  40206b:	64 48 33 04 25 28 00 	xor    %fs:0x28,%rax
  402072:	00 00 
  402074:	74 05                	je     40207b <launch+0xae>
  402076:	e8 55 ec ff ff       	callq  400cd0 <__stack_chk_fail@plt>
  40207b:	c9                   	leaveq 
  40207c:	c3                   	retq   

000000000040207d <stable_launch>:
  40207d:	53                   	push   %rbx
  40207e:	48 89 3d c3 34 20 00 	mov    %rdi,0x2034c3(%rip)        # 605548 <global_offset>
  402085:	41 b9 00 00 00 00    	mov    $0x0,%r9d
  40208b:	41 b8 00 00 00 00    	mov    $0x0,%r8d
  402091:	b9 32 01 00 00       	mov    $0x132,%ecx
  402096:	ba 07 00 00 00       	mov    $0x7,%edx
  40209b:	be 00 00 10 00       	mov    $0x100000,%esi
  4020a0:	bf 00 60 58 55       	mov    $0x55586000,%edi
  4020a5:	e8 36 ec ff ff       	callq  400ce0 <mmap@plt>
  4020aa:	48 89 c3             	mov    %rax,%rbx
  4020ad:	48 3d 00 60 58 55    	cmp    $0x55586000,%rax
  4020b3:	74 37                	je     4020ec <stable_launch+0x6f>
  4020b5:	be 00 00 10 00       	mov    $0x100000,%esi
  4020ba:	48 89 c7             	mov    %rax,%rdi
  4020bd:	e8 0e ed ff ff       	callq  400dd0 <munmap@plt>
  4020c2:	b9 00 60 58 55       	mov    $0x55586000,%ecx
  4020c7:	ba f8 35 40 00       	mov    $0x4035f8,%edx
  4020cc:	be 01 00 00 00       	mov    $0x1,%esi
  4020d1:	48 8b 3d 38 34 20 00 	mov    0x203438(%rip),%rdi        # 605510 <stderr@@GLIBC_2.2.5>
  4020d8:	b8 00 00 00 00       	mov    $0x0,%eax
  4020dd:	e8 6e ed ff ff       	callq  400e50 <__fprintf_chk@plt>
  4020e2:	bf 01 00 00 00       	mov    $0x1,%edi
  4020e7:	e8 44 ed ff ff       	callq  400e30 <exit@plt>
  4020ec:	48 8d 90 f8 ff 0f 00 	lea    0xffff8(%rax),%rdx
  4020f3:	48 89 15 96 40 20 00 	mov    %rdx,0x204096(%rip)        # 606190 <stack_top>
  4020fa:	48 89 e0             	mov    %rsp,%rax
  4020fd:	48 89 d4             	mov    %rdx,%rsp
  402100:	48 89 c2             	mov    %rax,%rdx
  402103:	48 89 15 36 34 20 00 	mov    %rdx,0x203436(%rip)        # 605540 <global_save_stack>
  40210a:	48 8b 3d 37 34 20 00 	mov    0x203437(%rip),%rdi        # 605548 <global_offset>
  402111:	e8 b7 fe ff ff       	callq  401fcd <launch>
  402116:	48 8b 05 23 34 20 00 	mov    0x203423(%rip),%rax        # 605540 <global_save_stack>
  40211d:	48 89 c4             	mov    %rax,%rsp
  402120:	be 00 00 10 00       	mov    $0x100000,%esi
  402125:	48 89 df             	mov    %rbx,%rdi
  402128:	e8 a3 ec ff ff       	callq  400dd0 <munmap@plt>
  40212d:	5b                   	pop    %rbx
  40212e:	c3                   	retq   

000000000040212f <rio_readinitb>:
  40212f:	89 37                	mov    %esi,(%rdi)
  402131:	c7 47 04 00 00 00 00 	movl   $0x0,0x4(%rdi)
  402138:	48 8d 47 10          	lea    0x10(%rdi),%rax
  40213c:	48 89 47 08          	mov    %rax,0x8(%rdi)
  402140:	c3                   	retq   

0000000000402141 <sigalrm_handler>:
  402141:	48 83 ec 08          	sub    $0x8,%rsp
  402145:	b9 00 00 00 00       	mov    $0x0,%ecx
  40214a:	ba 30 36 40 00       	mov    $0x403630,%edx
  40214f:	be 01 00 00 00       	mov    $0x1,%esi
  402154:	48 8b 3d b5 33 20 00 	mov    0x2033b5(%rip),%rdi        # 605510 <stderr@@GLIBC_2.2.5>
  40215b:	b8 00 00 00 00       	mov    $0x0,%eax
  402160:	e8 eb ec ff ff       	callq  400e50 <__fprintf_chk@plt>
  402165:	bf 01 00 00 00       	mov    $0x1,%edi
  40216a:	e8 c1 ec ff ff       	callq  400e30 <exit@plt>

000000000040216f <rio_writen>:
  40216f:	41 55                	push   %r13
  402171:	41 54                	push   %r12
  402173:	55                   	push   %rbp
  402174:	53                   	push   %rbx
  402175:	48 83 ec 08          	sub    $0x8,%rsp
  402179:	41 89 fc             	mov    %edi,%r12d
  40217c:	48 89 f5             	mov    %rsi,%rbp
  40217f:	49 89 d5             	mov    %rdx,%r13
  402182:	48 89 d3             	mov    %rdx,%rbx
  402185:	eb 28                	jmp    4021af <rio_writen+0x40>
  402187:	48 89 da             	mov    %rbx,%rdx
  40218a:	48 89 ee             	mov    %rbp,%rsi
  40218d:	44 89 e7             	mov    %r12d,%edi
  402190:	e8 2b eb ff ff       	callq  400cc0 <write@plt>
  402195:	48 85 c0             	test   %rax,%rax
  402198:	7f 0f                	jg     4021a9 <rio_writen+0x3a>
  40219a:	e8 d1 ea ff ff       	callq  400c70 <__errno_location@plt>
  40219f:	83 38 04             	cmpl   $0x4,(%rax)
  4021a2:	75 15                	jne    4021b9 <rio_writen+0x4a>
  4021a4:	b8 00 00 00 00       	mov    $0x0,%eax
  4021a9:	48 29 c3             	sub    %rax,%rbx
  4021ac:	48 01 c5             	add    %rax,%rbp
  4021af:	48 85 db             	test   %rbx,%rbx
  4021b2:	75 d3                	jne    402187 <rio_writen+0x18>
  4021b4:	4c 89 e8             	mov    %r13,%rax
  4021b7:	eb 07                	jmp    4021c0 <rio_writen+0x51>
  4021b9:	48 c7 c0 ff ff ff ff 	mov    $0xffffffffffffffff,%rax
  4021c0:	48 83 c4 08          	add    $0x8,%rsp
  4021c4:	5b                   	pop    %rbx
  4021c5:	5d                   	pop    %rbp
  4021c6:	41 5c                	pop    %r12
  4021c8:	41 5d                	pop    %r13
  4021ca:	c3                   	retq   

00000000004021cb <rio_read>:
  4021cb:	41 56                	push   %r14
  4021cd:	41 55                	push   %r13
  4021cf:	41 54                	push   %r12
  4021d1:	55                   	push   %rbp
  4021d2:	53                   	push   %rbx
  4021d3:	48 89 fb             	mov    %rdi,%rbx
  4021d6:	49 89 f5             	mov    %rsi,%r13
  4021d9:	49 89 d4             	mov    %rdx,%r12
  4021dc:	eb 2e                	jmp    40220c <rio_read+0x41>
  4021de:	48 8d 6b 10          	lea    0x10(%rbx),%rbp
  4021e2:	8b 3b                	mov    (%rbx),%edi
  4021e4:	ba 00 20 00 00       	mov    $0x2000,%edx
  4021e9:	48 89 ee             	mov    %rbp,%rsi
  4021ec:	e8 2f eb ff ff       	callq  400d20 <read@plt>
  4021f1:	89 43 04             	mov    %eax,0x4(%rbx)
  4021f4:	85 c0                	test   %eax,%eax
  4021f6:	79 0c                	jns    402204 <rio_read+0x39>
  4021f8:	e8 73 ea ff ff       	callq  400c70 <__errno_location@plt>
  4021fd:	83 38 04             	cmpl   $0x4,(%rax)
  402200:	74 0a                	je     40220c <rio_read+0x41>
  402202:	eb 3b                	jmp    40223f <rio_read+0x74>
  402204:	85 c0                	test   %eax,%eax
  402206:	74 40                	je     402248 <rio_read+0x7d>
  402208:	48 89 6b 08          	mov    %rbp,0x8(%rbx)
  40220c:	8b 43 04             	mov    0x4(%rbx),%eax
  40220f:	85 c0                	test   %eax,%eax
  402211:	7e cb                	jle    4021de <rio_read+0x13>
  402213:	45 89 e6             	mov    %r12d,%r14d
  402216:	89 c2                	mov    %eax,%edx
  402218:	4c 39 e2             	cmp    %r12,%rdx
  40221b:	73 03                	jae    402220 <rio_read+0x55>
  40221d:	41 89 c6             	mov    %eax,%r14d
  402220:	49 63 ee             	movslq %r14d,%rbp
  402223:	48 8b 73 08          	mov    0x8(%rbx),%rsi
  402227:	48 89 ea             	mov    %rbp,%rdx
  40222a:	4c 89 ef             	mov    %r13,%rdi
  40222d:	e8 4e eb ff ff       	callq  400d80 <memcpy@plt>
  402232:	48 01 6b 08          	add    %rbp,0x8(%rbx)
  402236:	44 29 73 04          	sub    %r14d,0x4(%rbx)
  40223a:	48 89 e8             	mov    %rbp,%rax
  40223d:	eb 0e                	jmp    40224d <rio_read+0x82>
  40223f:	48 c7 c0 ff ff ff ff 	mov    $0xffffffffffffffff,%rax
  402246:	eb 05                	jmp    40224d <rio_read+0x82>
  402248:	b8 00 00 00 00       	mov    $0x0,%eax
  40224d:	5b                   	pop    %rbx
  40224e:	5d                   	pop    %rbp
  40224f:	41 5c                	pop    %r12
  402251:	41 5d                	pop    %r13
  402253:	41 5e                	pop    %r14
  402255:	c3                   	retq   

0000000000402256 <rio_readlineb>:
  402256:	41 55                	push   %r13
  402258:	41 54                	push   %r12
  40225a:	55                   	push   %rbp
  40225b:	53                   	push   %rbx
  40225c:	48 83 ec 18          	sub    $0x18,%rsp
  402260:	49 89 fd             	mov    %rdi,%r13
  402263:	48 89 f5             	mov    %rsi,%rbp
  402266:	49 89 d4             	mov    %rdx,%r12
  402269:	64 48 8b 04 25 28 00 	mov    %fs:0x28,%rax
  402270:	00 00 
  402272:	48 89 44 24 08       	mov    %rax,0x8(%rsp)
  402277:	31 c0                	xor    %eax,%eax
  402279:	bb 01 00 00 00       	mov    $0x1,%ebx
  40227e:	eb 3f                	jmp    4022bf <rio_readlineb+0x69>
  402280:	ba 01 00 00 00       	mov    $0x1,%edx
  402285:	48 8d 74 24 07       	lea    0x7(%rsp),%rsi
  40228a:	4c 89 ef             	mov    %r13,%rdi
  40228d:	e8 39 ff ff ff       	callq  4021cb <rio_read>
  402292:	83 f8 01             	cmp    $0x1,%eax
  402295:	75 15                	jne    4022ac <rio_readlineb+0x56>
  402297:	48 8d 45 01          	lea    0x1(%rbp),%rax
  40229b:	0f b6 54 24 07       	movzbl 0x7(%rsp),%edx
  4022a0:	88 55 00             	mov    %dl,0x0(%rbp)
  4022a3:	80 7c 24 07 0a       	cmpb   $0xa,0x7(%rsp)
  4022a8:	75 0e                	jne    4022b8 <rio_readlineb+0x62>
  4022aa:	eb 1a                	jmp    4022c6 <rio_readlineb+0x70>
  4022ac:	85 c0                	test   %eax,%eax
  4022ae:	75 22                	jne    4022d2 <rio_readlineb+0x7c>
  4022b0:	48 83 fb 01          	cmp    $0x1,%rbx
  4022b4:	75 13                	jne    4022c9 <rio_readlineb+0x73>
  4022b6:	eb 23                	jmp    4022db <rio_readlineb+0x85>
  4022b8:	48 83 c3 01          	add    $0x1,%rbx
  4022bc:	48 89 c5             	mov    %rax,%rbp
  4022bf:	4c 39 e3             	cmp    %r12,%rbx
  4022c2:	72 bc                	jb     402280 <rio_readlineb+0x2a>
  4022c4:	eb 03                	jmp    4022c9 <rio_readlineb+0x73>
  4022c6:	48 89 c5             	mov    %rax,%rbp
  4022c9:	c6 45 00 00          	movb   $0x0,0x0(%rbp)
  4022cd:	48 89 d8             	mov    %rbx,%rax
  4022d0:	eb 0e                	jmp    4022e0 <rio_readlineb+0x8a>
  4022d2:	48 c7 c0 ff ff ff ff 	mov    $0xffffffffffffffff,%rax
  4022d9:	eb 05                	jmp    4022e0 <rio_readlineb+0x8a>
  4022db:	b8 00 00 00 00       	mov    $0x0,%eax
  4022e0:	48 8b 4c 24 08       	mov    0x8(%rsp),%rcx
  4022e5:	64 48 33 0c 25 28 00 	xor    %fs:0x28,%rcx
  4022ec:	00 00 
  4022ee:	74 05                	je     4022f5 <rio_readlineb+0x9f>
  4022f0:	e8 db e9 ff ff       	callq  400cd0 <__stack_chk_fail@plt>
  4022f5:	48 83 c4 18          	add    $0x18,%rsp
  4022f9:	5b                   	pop    %rbx
  4022fa:	5d                   	pop    %rbp
  4022fb:	41 5c                	pop    %r12
  4022fd:	41 5d                	pop    %r13
  4022ff:	c3                   	retq   

0000000000402300 <urlencode>:
  402300:	41 54                	push   %r12
  402302:	55                   	push   %rbp
  402303:	53                   	push   %rbx
  402304:	48 83 ec 10          	sub    $0x10,%rsp
  402308:	48 89 fb             	mov    %rdi,%rbx
  40230b:	48 89 f5             	mov    %rsi,%rbp
  40230e:	64 48 8b 04 25 28 00 	mov    %fs:0x28,%rax
  402315:	00 00 
  402317:	48 89 44 24 08       	mov    %rax,0x8(%rsp)
  40231c:	31 c0                	xor    %eax,%eax
  40231e:	48 c7 c1 ff ff ff ff 	mov    $0xffffffffffffffff,%rcx
  402325:	f2 ae                	repnz scas %es:(%rdi),%al
  402327:	48 f7 d1             	not    %rcx
  40232a:	8d 41 ff             	lea    -0x1(%rcx),%eax
  40232d:	e9 aa 00 00 00       	jmpq   4023dc <urlencode+0xdc>
  402332:	44 0f b6 03          	movzbl (%rbx),%r8d
  402336:	41 80 f8 2a          	cmp    $0x2a,%r8b
  40233a:	0f 94 c2             	sete   %dl
  40233d:	41 80 f8 2d          	cmp    $0x2d,%r8b
  402341:	0f 94 c0             	sete   %al
  402344:	08 c2                	or     %al,%dl
  402346:	75 24                	jne    40236c <urlencode+0x6c>
  402348:	41 80 f8 2e          	cmp    $0x2e,%r8b
  40234c:	74 1e                	je     40236c <urlencode+0x6c>
  40234e:	41 80 f8 5f          	cmp    $0x5f,%r8b
  402352:	74 18                	je     40236c <urlencode+0x6c>
  402354:	41 8d 40 d0          	lea    -0x30(%r8),%eax
  402358:	3c 09                	cmp    $0x9,%al
  40235a:	76 10                	jbe    40236c <urlencode+0x6c>
  40235c:	41 8d 40 bf          	lea    -0x41(%r8),%eax
  402360:	3c 19                	cmp    $0x19,%al
  402362:	76 08                	jbe    40236c <urlencode+0x6c>
  402364:	41 8d 40 9f          	lea    -0x61(%r8),%eax
  402368:	3c 19                	cmp    $0x19,%al
  40236a:	77 0a                	ja     402376 <urlencode+0x76>
  40236c:	44 88 45 00          	mov    %r8b,0x0(%rbp)
  402370:	48 8d 6d 01          	lea    0x1(%rbp),%rbp
  402374:	eb 5f                	jmp    4023d5 <urlencode+0xd5>
  402376:	41 80 f8 20          	cmp    $0x20,%r8b
  40237a:	75 0a                	jne    402386 <urlencode+0x86>
  40237c:	c6 45 00 2b          	movb   $0x2b,0x0(%rbp)
  402380:	48 8d 6d 01          	lea    0x1(%rbp),%rbp
  402384:	eb 4f                	jmp    4023d5 <urlencode+0xd5>
  402386:	41 8d 40 e0          	lea    -0x20(%r8),%eax
  40238a:	3c 5f                	cmp    $0x5f,%al
  40238c:	0f 96 c2             	setbe  %dl
  40238f:	41 80 f8 09          	cmp    $0x9,%r8b
  402393:	0f 94 c0             	sete   %al
  402396:	08 c2                	or     %al,%dl
  402398:	74 50                	je     4023ea <urlencode+0xea>
  40239a:	45 0f b6 c0          	movzbl %r8b,%r8d
  40239e:	b9 c8 36 40 00       	mov    $0x4036c8,%ecx
  4023a3:	ba 08 00 00 00       	mov    $0x8,%edx
  4023a8:	be 01 00 00 00       	mov    $0x1,%esi
  4023ad:	48 89 e7             	mov    %rsp,%rdi
  4023b0:	b8 00 00 00 00       	mov    $0x0,%eax
  4023b5:	e8 a6 ea ff ff       	callq  400e60 <__sprintf_chk@plt>
  4023ba:	0f b6 04 24          	movzbl (%rsp),%eax
  4023be:	88 45 00             	mov    %al,0x0(%rbp)
  4023c1:	0f b6 44 24 01       	movzbl 0x1(%rsp),%eax
  4023c6:	88 45 01             	mov    %al,0x1(%rbp)
  4023c9:	0f b6 44 24 02       	movzbl 0x2(%rsp),%eax
  4023ce:	88 45 02             	mov    %al,0x2(%rbp)
  4023d1:	48 8d 6d 03          	lea    0x3(%rbp),%rbp
  4023d5:	48 83 c3 01          	add    $0x1,%rbx
  4023d9:	44 89 e0             	mov    %r12d,%eax
  4023dc:	44 8d 60 ff          	lea    -0x1(%rax),%r12d
  4023e0:	85 c0                	test   %eax,%eax
  4023e2:	0f 85 4a ff ff ff    	jne    402332 <urlencode+0x32>
  4023e8:	eb 05                	jmp    4023ef <urlencode+0xef>
  4023ea:	b8 ff ff ff ff       	mov    $0xffffffff,%eax
  4023ef:	48 8b 74 24 08       	mov    0x8(%rsp),%rsi
  4023f4:	64 48 33 34 25 28 00 	xor    %fs:0x28,%rsi
  4023fb:	00 00 
  4023fd:	74 05                	je     402404 <urlencode+0x104>
  4023ff:	e8 cc e8 ff ff       	callq  400cd0 <__stack_chk_fail@plt>
  402404:	48 83 c4 10          	add    $0x10,%rsp
  402408:	5b                   	pop    %rbx
  402409:	5d                   	pop    %rbp
  40240a:	41 5c                	pop    %r12
  40240c:	c3                   	retq   

000000000040240d <submitr>:
  40240d:	41 57                	push   %r15
  40240f:	41 56                	push   %r14
  402411:	41 55                	push   %r13
  402413:	41 54                	push   %r12
  402415:	55                   	push   %rbp
  402416:	53                   	push   %rbx
  402417:	48 81 ec 58 a0 00 00 	sub    $0xa058,%rsp
  40241e:	49 89 fc             	mov    %rdi,%r12
  402421:	89 74 24 04          	mov    %esi,0x4(%rsp)
  402425:	49 89 d7             	mov    %rdx,%r15
  402428:	49 89 ce             	mov    %rcx,%r14
  40242b:	4c 89 44 24 08       	mov    %r8,0x8(%rsp)
  402430:	4d 89 cd             	mov    %r9,%r13
  402433:	48 8b 9c 24 90 a0 00 	mov    0xa090(%rsp),%rbx
  40243a:	00 
  40243b:	64 48 8b 04 25 28 00 	mov    %fs:0x28,%rax
  402442:	00 00 
  402444:	48 89 84 24 48 a0 00 	mov    %rax,0xa048(%rsp)
  40244b:	00 
  40244c:	31 c0                	xor    %eax,%eax
  40244e:	c7 44 24 1c 00 00 00 	movl   $0x0,0x1c(%rsp)
  402455:	00 
  402456:	ba 00 00 00 00       	mov    $0x0,%edx
  40245b:	be 01 00 00 00       	mov    $0x1,%esi
  402460:	bf 02 00 00 00       	mov    $0x2,%edi
  402465:	e8 06 ea ff ff       	callq  400e70 <socket@plt>
  40246a:	89 c5                	mov    %eax,%ebp
  40246c:	85 c0                	test   %eax,%eax
  40246e:	79 4e                	jns    4024be <submitr+0xb1>
  402470:	48 b8 45 72 72 6f 72 	movabs $0x43203a726f727245,%rax
  402477:	3a 20 43 
  40247a:	48 89 03             	mov    %rax,(%rbx)
  40247d:	48 b8 6c 69 65 6e 74 	movabs $0x6e7520746e65696c,%rax
  402484:	20 75 6e 
  402487:	48 89 43 08          	mov    %rax,0x8(%rbx)
  40248b:	48 b8 61 62 6c 65 20 	movabs $0x206f7420656c6261,%rax
  402492:	74 6f 20 
  402495:	48 89 43 10          	mov    %rax,0x10(%rbx)
  402499:	48 b8 63 72 65 61 74 	movabs $0x7320657461657263,%rax
  4024a0:	65 20 73 
  4024a3:	48 89 43 18          	mov    %rax,0x18(%rbx)
  4024a7:	c7 43 20 6f 63 6b 65 	movl   $0x656b636f,0x20(%rbx)
  4024ae:	66 c7 43 24 74 00    	movw   $0x74,0x24(%rbx)
  4024b4:	b8 ff ff ff ff       	mov    $0xffffffff,%eax
  4024b9:	e9 89 06 00 00       	jmpq   402b47 <submitr+0x73a>
  4024be:	4c 89 e7             	mov    %r12,%rdi
  4024c1:	e8 8a e8 ff ff       	callq  400d50 <gethostbyname@plt>
  4024c6:	48 85 c0             	test   %rax,%rax
  4024c9:	75 67                	jne    402532 <submitr+0x125>
  4024cb:	48 b8 45 72 72 6f 72 	movabs $0x44203a726f727245,%rax
  4024d2:	3a 20 44 
  4024d5:	48 89 03             	mov    %rax,(%rbx)
  4024d8:	48 b8 4e 53 20 69 73 	movabs $0x6e7520736920534e,%rax
  4024df:	20 75 6e 
  4024e2:	48 89 43 08          	mov    %rax,0x8(%rbx)
  4024e6:	48 b8 61 62 6c 65 20 	movabs $0x206f7420656c6261,%rax
  4024ed:	74 6f 20 
  4024f0:	48 89 43 10          	mov    %rax,0x10(%rbx)
  4024f4:	48 b8 72 65 73 6f 6c 	movabs $0x2065766c6f736572,%rax
  4024fb:	76 65 20 
  4024fe:	48 89 43 18          	mov    %rax,0x18(%rbx)
  402502:	48 b8 73 65 72 76 65 	movabs $0x6120726576726573,%rax
  402509:	72 20 61 
  40250c:	48 89 43 20          	mov    %rax,0x20(%rbx)
  402510:	c7 43 28 64 64 72 65 	movl   $0x65726464,0x28(%rbx)
  402517:	66 c7 43 2c 73 73    	movw   $0x7373,0x2c(%rbx)
  40251d:	c6 43 2e 00          	movb   $0x0,0x2e(%rbx)
  402521:	89 ef                	mov    %ebp,%edi
  402523:	e8 e8 e7 ff ff       	callq  400d10 <close@plt>
  402528:	b8 ff ff ff ff       	mov    $0xffffffff,%eax
  40252d:	e9 15 06 00 00       	jmpq   402b47 <submitr+0x73a>
  402532:	48 c7 44 24 20 00 00 	movq   $0x0,0x20(%rsp)
  402539:	00 00 
  40253b:	48 c7 44 24 28 00 00 	movq   $0x0,0x28(%rsp)
  402542:	00 00 
  402544:	66 c7 44 24 20 02 00 	movw   $0x2,0x20(%rsp)
  40254b:	48 63 50 14          	movslq 0x14(%rax),%rdx
  40254f:	48 8b 40 18          	mov    0x18(%rax),%rax
  402553:	48 8b 30             	mov    (%rax),%rsi
  402556:	48 8d 7c 24 24       	lea    0x24(%rsp),%rdi
  40255b:	b9 0c 00 00 00       	mov    $0xc,%ecx
  402560:	e8 fb e7 ff ff       	callq  400d60 <__memmove_chk@plt>
  402565:	0f b7 44 24 04       	movzwl 0x4(%rsp),%eax
  40256a:	66 c1 c8 08          	ror    $0x8,%ax
  40256e:	66 89 44 24 22       	mov    %ax,0x22(%rsp)
  402573:	ba 10 00 00 00       	mov    $0x10,%edx
  402578:	48 8d 74 24 20       	lea    0x20(%rsp),%rsi
  40257d:	89 ef                	mov    %ebp,%edi
  40257f:	e8 bc e8 ff ff       	callq  400e40 <connect@plt>
  402584:	85 c0                	test   %eax,%eax
  402586:	79 59                	jns    4025e1 <submitr+0x1d4>
  402588:	48 b8 45 72 72 6f 72 	movabs $0x55203a726f727245,%rax
  40258f:	3a 20 55 
  402592:	48 89 03             	mov    %rax,(%rbx)
  402595:	48 b8 6e 61 62 6c 65 	movabs $0x6f7420656c62616e,%rax
  40259c:	20 74 6f 
  40259f:	48 89 43 08          	mov    %rax,0x8(%rbx)
  4025a3:	48 b8 20 63 6f 6e 6e 	movabs $0x7463656e6e6f6320,%rax
  4025aa:	65 63 74 
  4025ad:	48 89 43 10          	mov    %rax,0x10(%rbx)
  4025b1:	48 b8 20 74 6f 20 74 	movabs $0x20656874206f7420,%rax
  4025b8:	68 65 20 
  4025bb:	48 89 43 18          	mov    %rax,0x18(%rbx)
  4025bf:	c7 43 20 73 65 72 76 	movl   $0x76726573,0x20(%rbx)
  4025c6:	66 c7 43 24 65 72    	movw   $0x7265,0x24(%rbx)
  4025cc:	c6 43 26 00          	movb   $0x0,0x26(%rbx)
  4025d0:	89 ef                	mov    %ebp,%edi
  4025d2:	e8 39 e7 ff ff       	callq  400d10 <close@plt>
  4025d7:	b8 ff ff ff ff       	mov    $0xffffffff,%eax
  4025dc:	e9 66 05 00 00       	jmpq   402b47 <submitr+0x73a>
  4025e1:	49 c7 c0 ff ff ff ff 	mov    $0xffffffffffffffff,%r8
  4025e8:	4c 89 ef             	mov    %r13,%rdi
  4025eb:	b8 00 00 00 00       	mov    $0x0,%eax
  4025f0:	4c 89 c1             	mov    %r8,%rcx
  4025f3:	f2 ae                	repnz scas %es:(%rdi),%al
  4025f5:	48 f7 d1             	not    %rcx
  4025f8:	48 89 ce             	mov    %rcx,%rsi
  4025fb:	4c 89 ff             	mov    %r15,%rdi
  4025fe:	4c 89 c1             	mov    %r8,%rcx
  402601:	f2 ae                	repnz scas %es:(%rdi),%al
  402603:	48 f7 d1             	not    %rcx
  402606:	48 89 ca             	mov    %rcx,%rdx
  402609:	4c 89 f7             	mov    %r14,%rdi
  40260c:	4c 89 c1             	mov    %r8,%rcx
  40260f:	f2 ae                	repnz scas %es:(%rdi),%al
  402611:	48 29 ca             	sub    %rcx,%rdx
  402614:	48 8b 7c 24 08       	mov    0x8(%rsp),%rdi
  402619:	4c 89 c1             	mov    %r8,%rcx
  40261c:	f2 ae                	repnz scas %es:(%rdi),%al
  40261e:	48 29 ca             	sub    %rcx,%rdx
  402621:	48 8d 44 76 fd       	lea    -0x3(%rsi,%rsi,2),%rax
  402626:	48 8d 44 02 7b       	lea    0x7b(%rdx,%rax,1),%rax
  40262b:	48 3d 00 20 00 00    	cmp    $0x2000,%rax
  402631:	76 72                	jbe    4026a5 <submitr+0x298>
  402633:	48 b8 45 72 72 6f 72 	movabs $0x52203a726f727245,%rax
  40263a:	3a 20 52 
  40263d:	48 89 03             	mov    %rax,(%rbx)
  402640:	48 b8 65 73 75 6c 74 	movabs $0x747320746c757365,%rax
  402647:	20 73 74 
  40264a:	48 89 43 08          	mov    %rax,0x8(%rbx)
  40264e:	48 b8 72 69 6e 67 20 	movabs $0x6f6f7420676e6972,%rax
  402655:	74 6f 6f 
  402658:	48 89 43 10          	mov    %rax,0x10(%rbx)
  40265c:	48 b8 20 6c 61 72 67 	movabs $0x202e656772616c20,%rax
  402663:	65 2e 20 
  402666:	48 89 43 18          	mov    %rax,0x18(%rbx)
  40266a:	48 b8 49 6e 63 72 65 	movabs $0x6573616572636e49,%rax
  402671:	61 73 65 
  402674:	48 89 43 20          	mov    %rax,0x20(%rbx)
  402678:	48 b8 20 53 55 42 4d 	movabs $0x5254494d42555320,%rax
  40267f:	49 54 52 
  402682:	48 89 43 28          	mov    %rax,0x28(%rbx)
  402686:	48 b8 5f 4d 41 58 42 	movabs $0x46554258414d5f,%rax
  40268d:	55 46 00 
  402690:	48 89 43 30          	mov    %rax,0x30(%rbx)
  402694:	89 ef                	mov    %ebp,%edi
  402696:	e8 75 e6 ff ff       	callq  400d10 <close@plt>
  40269b:	b8 ff ff ff ff       	mov    $0xffffffff,%eax
  4026a0:	e9 a2 04 00 00       	jmpq   402b47 <submitr+0x73a>
  4026a5:	48 8d b4 24 40 40 00 	lea    0x4040(%rsp),%rsi
  4026ac:	00 
  4026ad:	b9 00 04 00 00       	mov    $0x400,%ecx
  4026b2:	b8 00 00 00 00       	mov    $0x0,%eax
  4026b7:	48 89 f7             	mov    %rsi,%rdi
  4026ba:	f3 48 ab             	rep stos %rax,%es:(%rdi)
  4026bd:	4c 89 ef             	mov    %r13,%rdi
  4026c0:	e8 3b fc ff ff       	callq  402300 <urlencode>
  4026c5:	85 c0                	test   %eax,%eax
  4026c7:	0f 89 8a 00 00 00    	jns    402757 <submitr+0x34a>
  4026cd:	48 b8 45 72 72 6f 72 	movabs $0x52203a726f727245,%rax
  4026d4:	3a 20 52 
  4026d7:	48 89 03             	mov    %rax,(%rbx)
  4026da:	48 b8 65 73 75 6c 74 	movabs $0x747320746c757365,%rax
  4026e1:	20 73 74 
  4026e4:	48 89 43 08          	mov    %rax,0x8(%rbx)
  4026e8:	48 b8 72 69 6e 67 20 	movabs $0x6e6f6320676e6972,%rax
  4026ef:	63 6f 6e 
  4026f2:	48 89 43 10          	mov    %rax,0x10(%rbx)
  4026f6:	48 b8 74 61 69 6e 73 	movabs $0x6e6120736e696174,%rax
  4026fd:	20 61 6e 
  402700:	48 89 43 18          	mov    %rax,0x18(%rbx)
  402704:	48 b8 20 69 6c 6c 65 	movabs $0x6c6167656c6c6920,%rax
  40270b:	67 61 6c 
  40270e:	48 89 43 20          	mov    %rax,0x20(%rbx)
  402712:	48 b8 20 6f 72 20 75 	movabs $0x72706e7520726f20,%rax
  402719:	6e 70 72 
  40271c:	48 89 43 28          	mov    %rax,0x28(%rbx)
  402720:	48 b8 69 6e 74 61 62 	movabs $0x20656c6261746e69,%rax
  402727:	6c 65 20 
  40272a:	48 89 43 30          	mov    %rax,0x30(%rbx)
  40272e:	48 b8 63 68 61 72 61 	movabs $0x6574636172616863,%rax
  402735:	63 74 65 
  402738:	48 89 43 38          	mov    %rax,0x38(%rbx)
  40273c:	66 c7 43 40 72 2e    	movw   $0x2e72,0x40(%rbx)
  402742:	c6 43 42 00          	movb   $0x0,0x42(%rbx)
  402746:	89 ef                	mov    %ebp,%edi
  402748:	e8 c3 e5 ff ff       	callq  400d10 <close@plt>
  40274d:	b8 ff ff ff ff       	mov    $0xffffffff,%eax
  402752:	e9 f0 03 00 00       	jmpq   402b47 <submitr+0x73a>
  402757:	41 54                	push   %r12
  402759:	48 8d 84 24 48 40 00 	lea    0x4048(%rsp),%rax
  402760:	00 
  402761:	50                   	push   %rax
  402762:	4d 89 f9             	mov    %r15,%r9
  402765:	4d 89 f0             	mov    %r14,%r8
  402768:	b9 58 36 40 00       	mov    $0x403658,%ecx
  40276d:	ba 00 20 00 00       	mov    $0x2000,%edx
  402772:	be 01 00 00 00       	mov    $0x1,%esi
  402777:	48 8d bc 24 50 20 00 	lea    0x2050(%rsp),%rdi
  40277e:	00 
  40277f:	b8 00 00 00 00       	mov    $0x0,%eax
  402784:	e8 d7 e6 ff ff       	callq  400e60 <__sprintf_chk@plt>
  402789:	48 8d bc 24 50 20 00 	lea    0x2050(%rsp),%rdi
  402790:	00 
  402791:	b8 00 00 00 00       	mov    $0x0,%eax
  402796:	48 c7 c1 ff ff ff ff 	mov    $0xffffffffffffffff,%rcx
  40279d:	f2 ae                	repnz scas %es:(%rdi),%al
  40279f:	48 f7 d1             	not    %rcx
  4027a2:	48 8d 51 ff          	lea    -0x1(%rcx),%rdx
  4027a6:	48 8d b4 24 50 20 00 	lea    0x2050(%rsp),%rsi
  4027ad:	00 
  4027ae:	89 ef                	mov    %ebp,%edi
  4027b0:	e8 ba f9 ff ff       	callq  40216f <rio_writen>
  4027b5:	48 83 c4 10          	add    $0x10,%rsp
  4027b9:	48 85 c0             	test   %rax,%rax
  4027bc:	79 6e                	jns    40282c <submitr+0x41f>
  4027be:	48 b8 45 72 72 6f 72 	movabs $0x43203a726f727245,%rax
  4027c5:	3a 20 43 
  4027c8:	48 89 03             	mov    %rax,(%rbx)
  4027cb:	48 b8 6c 69 65 6e 74 	movabs $0x6e7520746e65696c,%rax
  4027d2:	20 75 6e 
  4027d5:	48 89 43 08          	mov    %rax,0x8(%rbx)
  4027d9:	48 b8 61 62 6c 65 20 	movabs $0x206f7420656c6261,%rax
  4027e0:	74 6f 20 
  4027e3:	48 89 43 10          	mov    %rax,0x10(%rbx)
  4027e7:	48 b8 77 72 69 74 65 	movabs $0x6f74206574697277,%rax
  4027ee:	20 74 6f 
  4027f1:	48 89 43 18          	mov    %rax,0x18(%rbx)
  4027f5:	48 b8 20 74 68 65 20 	movabs $0x7365722065687420,%rax
  4027fc:	72 65 73 
  4027ff:	48 89 43 20          	mov    %rax,0x20(%rbx)
  402803:	48 b8 75 6c 74 20 73 	movabs $0x7672657320746c75,%rax
  40280a:	65 72 76 
  40280d:	48 89 43 28          	mov    %rax,0x28(%rbx)
  402811:	66 c7 43 30 65 72    	movw   $0x7265,0x30(%rbx)
  402817:	c6 43 32 00          	movb   $0x0,0x32(%rbx)
  40281b:	89 ef                	mov    %ebp,%edi
  40281d:	e8 ee e4 ff ff       	callq  400d10 <close@plt>
  402822:	b8 ff ff ff ff       	mov    $0xffffffff,%eax
  402827:	e9 1b 03 00 00       	jmpq   402b47 <submitr+0x73a>
  40282c:	89 ee                	mov    %ebp,%esi
  40282e:	48 8d 7c 24 30       	lea    0x30(%rsp),%rdi
  402833:	e8 f7 f8 ff ff       	callq  40212f <rio_readinitb>
  402838:	ba 00 20 00 00       	mov    $0x2000,%edx
  40283d:	48 8d b4 24 40 20 00 	lea    0x2040(%rsp),%rsi
  402844:	00 
  402845:	48 8d 7c 24 30       	lea    0x30(%rsp),%rdi
  40284a:	e8 07 fa ff ff       	callq  402256 <rio_readlineb>
  40284f:	48 85 c0             	test   %rax,%rax
  402852:	7f 7d                	jg     4028d1 <submitr+0x4c4>
  402854:	48 b8 45 72 72 6f 72 	movabs $0x43203a726f727245,%rax
  40285b:	3a 20 43 
  40285e:	48 89 03             	mov    %rax,(%rbx)
  402861:	48 b8 6c 69 65 6e 74 	movabs $0x6e7520746e65696c,%rax
  402868:	20 75 6e 
  40286b:	48 89 43 08          	mov    %rax,0x8(%rbx)
  40286f:	48 b8 61 62 6c 65 20 	movabs $0x206f7420656c6261,%rax
  402876:	74 6f 20 
  402879:	48 89 43 10          	mov    %rax,0x10(%rbx)
  40287d:	48 b8 72 65 61 64 20 	movabs $0x7269662064616572,%rax
  402884:	66 69 72 
  402887:	48 89 43 18          	mov    %rax,0x18(%rbx)
  40288b:	48 b8 73 74 20 68 65 	movabs $0x6564616568207473,%rax
  402892:	61 64 65 
  402895:	48 89 43 20          	mov    %rax,0x20(%rbx)
  402899:	48 b8 72 20 66 72 6f 	movabs $0x72206d6f72662072,%rax
  4028a0:	6d 20 72 
  4028a3:	48 89 43 28          	mov    %rax,0x28(%rbx)
  4028a7:	48 b8 65 73 75 6c 74 	movabs $0x657320746c757365,%rax
  4028ae:	20 73 65 
  4028b1:	48 89 43 30          	mov    %rax,0x30(%rbx)
  4028b5:	c7 43 38 72 76 65 72 	movl   $0x72657672,0x38(%rbx)
  4028bc:	c6 43 3c 00          	movb   $0x0,0x3c(%rbx)
  4028c0:	89 ef                	mov    %ebp,%edi
  4028c2:	e8 49 e4 ff ff       	callq  400d10 <close@plt>
  4028c7:	b8 ff ff ff ff       	mov    $0xffffffff,%eax
  4028cc:	e9 76 02 00 00       	jmpq   402b47 <submitr+0x73a>
  4028d1:	4c 8d 84 24 40 80 00 	lea    0x8040(%rsp),%r8
  4028d8:	00 
  4028d9:	48 8d 4c 24 1c       	lea    0x1c(%rsp),%rcx
  4028de:	48 8d 94 24 40 60 00 	lea    0x6040(%rsp),%rdx
  4028e5:	00 
  4028e6:	be cf 36 40 00       	mov    $0x4036cf,%esi
  4028eb:	48 8d bc 24 40 20 00 	lea    0x2040(%rsp),%rdi
  4028f2:	00 
  4028f3:	b8 00 00 00 00       	mov    $0x0,%eax
  4028f8:	e8 c3 e4 ff ff       	callq  400dc0 <__isoc99_sscanf@plt>
  4028fd:	e9 95 00 00 00       	jmpq   402997 <submitr+0x58a>
  402902:	ba 00 20 00 00       	mov    $0x2000,%edx
  402907:	48 8d b4 24 40 20 00 	lea    0x2040(%rsp),%rsi
  40290e:	00 
  40290f:	48 8d 7c 24 30       	lea    0x30(%rsp),%rdi
  402914:	e8 3d f9 ff ff       	callq  402256 <rio_readlineb>
  402919:	48 85 c0             	test   %rax,%rax
  40291c:	7f 79                	jg     402997 <submitr+0x58a>
  40291e:	48 b8 45 72 72 6f 72 	movabs $0x43203a726f727245,%rax
  402925:	3a 20 43 
  402928:	48 89 03             	mov    %rax,(%rbx)
  40292b:	48 b8 6c 69 65 6e 74 	movabs $0x6e7520746e65696c,%rax
  402932:	20 75 6e 
  402935:	48 89 43 08          	mov    %rax,0x8(%rbx)
  402939:	48 b8 61 62 6c 65 20 	movabs $0x206f7420656c6261,%rax
  402940:	74 6f 20 
  402943:	48 89 43 10          	mov    %rax,0x10(%rbx)
  402947:	48 b8 72 65 61 64 20 	movabs $0x6165682064616572,%rax
  40294e:	68 65 61 
  402951:	48 89 43 18          	mov    %rax,0x18(%rbx)
  402955:	48 b8 64 65 72 73 20 	movabs $0x6f72662073726564,%rax
  40295c:	66 72 6f 
  40295f:	48 89 43 20          	mov    %rax,0x20(%rbx)
  402963:	48 b8 6d 20 74 68 65 	movabs $0x657220656874206d,%rax
  40296a:	20 72 65 
  40296d:	48 89 43 28          	mov    %rax,0x28(%rbx)
  402971:	48 b8 73 75 6c 74 20 	movabs $0x72657320746c7573,%rax
  402978:	73 65 72 
  40297b:	48 89 43 30          	mov    %rax,0x30(%rbx)
  40297f:	c7 43 38 76 65 72 00 	movl   $0x726576,0x38(%rbx)
  402986:	89 ef                	mov    %ebp,%edi
  402988:	e8 83 e3 ff ff       	callq  400d10 <close@plt>
  40298d:	b8 ff ff ff ff       	mov    $0xffffffff,%eax
  402992:	e9 b0 01 00 00       	jmpq   402b47 <submitr+0x73a>
  402997:	0f b6 94 24 40 20 00 	movzbl 0x2040(%rsp),%edx
  40299e:	00 
  40299f:	b8 0d 00 00 00       	mov    $0xd,%eax
  4029a4:	29 d0                	sub    %edx,%eax
  4029a6:	75 1b                	jne    4029c3 <submitr+0x5b6>
  4029a8:	0f b6 94 24 41 20 00 	movzbl 0x2041(%rsp),%edx
  4029af:	00 
  4029b0:	b8 0a 00 00 00       	mov    $0xa,%eax
  4029b5:	29 d0                	sub    %edx,%eax
  4029b7:	75 0a                	jne    4029c3 <submitr+0x5b6>
  4029b9:	0f b6 84 24 42 20 00 	movzbl 0x2042(%rsp),%eax
  4029c0:	00 
  4029c1:	f7 d8                	neg    %eax
  4029c3:	85 c0                	test   %eax,%eax
  4029c5:	0f 85 37 ff ff ff    	jne    402902 <submitr+0x4f5>
  4029cb:	ba 00 20 00 00       	mov    $0x2000,%edx
  4029d0:	48 8d b4 24 40 20 00 	lea    0x2040(%rsp),%rsi
  4029d7:	00 
  4029d8:	48 8d 7c 24 30       	lea    0x30(%rsp),%rdi
  4029dd:	e8 74 f8 ff ff       	callq  402256 <rio_readlineb>
  4029e2:	48 85 c0             	test   %rax,%rax
  4029e5:	0f 8f 83 00 00 00    	jg     402a6e <submitr+0x661>
  4029eb:	48 b8 45 72 72 6f 72 	movabs $0x43203a726f727245,%rax
  4029f2:	3a 20 43 
  4029f5:	48 89 03             	mov    %rax,(%rbx)
  4029f8:	48 b8 6c 69 65 6e 74 	movabs $0x6e7520746e65696c,%rax
  4029ff:	20 75 6e 
  402a02:	48 89 43 08          	mov    %rax,0x8(%rbx)
  402a06:	48 b8 61 62 6c 65 20 	movabs $0x206f7420656c6261,%rax
  402a0d:	74 6f 20 
  402a10:	48 89 43 10          	mov    %rax,0x10(%rbx)
  402a14:	48 b8 72 65 61 64 20 	movabs $0x6174732064616572,%rax
  402a1b:	73 74 61 
  402a1e:	48 89 43 18          	mov    %rax,0x18(%rbx)
  402a22:	48 b8 74 75 73 20 6d 	movabs $0x7373656d20737574,%rax
  402a29:	65 73 73 
  402a2c:	48 89 43 20          	mov    %rax,0x20(%rbx)
  402a30:	48 b8 61 67 65 20 66 	movabs $0x6d6f726620656761,%rax
  402a37:	72 6f 6d 
  402a3a:	48 89 43 28          	mov    %rax,0x28(%rbx)
  402a3e:	48 b8 20 72 65 73 75 	movabs $0x20746c7573657220,%rax
  402a45:	6c 74 20 
  402a48:	48 89 43 30          	mov    %rax,0x30(%rbx)
  402a4c:	c7 43 38 73 65 72 76 	movl   $0x76726573,0x38(%rbx)
  402a53:	66 c7 43 3c 65 72    	movw   $0x7265,0x3c(%rbx)
  402a59:	c6 43 3e 00          	movb   $0x0,0x3e(%rbx)
  402a5d:	89 ef                	mov    %ebp,%edi
  402a5f:	e8 ac e2 ff ff       	callq  400d10 <close@plt>
  402a64:	b8 ff ff ff ff       	mov    $0xffffffff,%eax
  402a69:	e9 d9 00 00 00       	jmpq   402b47 <submitr+0x73a>
  402a6e:	44 8b 44 24 1c       	mov    0x1c(%rsp),%r8d
  402a73:	41 81 f8 c8 00 00 00 	cmp    $0xc8,%r8d
  402a7a:	74 37                	je     402ab3 <submitr+0x6a6>
  402a7c:	4c 8d 8c 24 40 80 00 	lea    0x8040(%rsp),%r9
  402a83:	00 
  402a84:	b9 98 36 40 00       	mov    $0x403698,%ecx
  402a89:	48 c7 c2 ff ff ff ff 	mov    $0xffffffffffffffff,%rdx
  402a90:	be 01 00 00 00       	mov    $0x1,%esi
  402a95:	48 89 df             	mov    %rbx,%rdi
  402a98:	b8 00 00 00 00       	mov    $0x0,%eax
  402a9d:	e8 be e3 ff ff       	callq  400e60 <__sprintf_chk@plt>
  402aa2:	89 ef                	mov    %ebp,%edi
  402aa4:	e8 67 e2 ff ff       	callq  400d10 <close@plt>
  402aa9:	b8 ff ff ff ff       	mov    $0xffffffff,%eax
  402aae:	e9 94 00 00 00       	jmpq   402b47 <submitr+0x73a>
  402ab3:	48 8d b4 24 40 20 00 	lea    0x2040(%rsp),%rsi
  402aba:	00 
  402abb:	48 89 df             	mov    %rbx,%rdi
  402abe:	e8 dd e1 ff ff       	callq  400ca0 <strcpy@plt>
  402ac3:	89 ef                	mov    %ebp,%edi
  402ac5:	e8 46 e2 ff ff       	callq  400d10 <close@plt>
  402aca:	0f b6 03             	movzbl (%rbx),%eax
  402acd:	ba 4f 00 00 00       	mov    $0x4f,%edx
  402ad2:	29 c2                	sub    %eax,%edx
  402ad4:	75 22                	jne    402af8 <submitr+0x6eb>
  402ad6:	0f b6 4b 01          	movzbl 0x1(%rbx),%ecx
  402ada:	b8 4b 00 00 00       	mov    $0x4b,%eax
  402adf:	29 c8                	sub    %ecx,%eax
  402ae1:	75 17                	jne    402afa <submitr+0x6ed>
  402ae3:	0f b6 4b 02          	movzbl 0x2(%rbx),%ecx
  402ae7:	b8 0a 00 00 00       	mov    $0xa,%eax
  402aec:	29 c8                	sub    %ecx,%eax
  402aee:	75 0a                	jne    402afa <submitr+0x6ed>
  402af0:	0f b6 43 03          	movzbl 0x3(%rbx),%eax
  402af4:	f7 d8                	neg    %eax
  402af6:	eb 02                	jmp    402afa <submitr+0x6ed>
  402af8:	89 d0                	mov    %edx,%eax
  402afa:	85 c0                	test   %eax,%eax
  402afc:	74 3d                	je     402b3b <submitr+0x72e>
  402afe:	bf e0 36 40 00       	mov    $0x4036e0,%edi
  402b03:	b9 05 00 00 00       	mov    $0x5,%ecx
  402b08:	48 89 de             	mov    %rbx,%rsi
  402b0b:	f3 a6                	repz cmpsb %es:(%rdi),%ds:(%rsi)
  402b0d:	0f 97 c0             	seta   %al
  402b10:	0f 92 c1             	setb   %cl
  402b13:	29 c8                	sub    %ecx,%eax
  402b15:	0f be c0             	movsbl %al,%eax
  402b18:	85 c0                	test   %eax,%eax
  402b1a:	74 2b                	je     402b47 <submitr+0x73a>
  402b1c:	85 d2                	test   %edx,%edx
  402b1e:	75 10                	jne    402b30 <submitr+0x723>
  402b20:	0f b6 43 01          	movzbl 0x1(%rbx),%eax
  402b24:	b2 4b                	mov    $0x4b,%dl
  402b26:	29 c2                	sub    %eax,%edx
  402b28:	75 06                	jne    402b30 <submitr+0x723>
  402b2a:	0f b6 53 02          	movzbl 0x2(%rbx),%edx
  402b2e:	f7 da                	neg    %edx
  402b30:	85 d2                	test   %edx,%edx
  402b32:	75 0e                	jne    402b42 <submitr+0x735>
  402b34:	b8 00 00 00 00       	mov    $0x0,%eax
  402b39:	eb 0c                	jmp    402b47 <submitr+0x73a>
  402b3b:	b8 00 00 00 00       	mov    $0x0,%eax
  402b40:	eb 05                	jmp    402b47 <submitr+0x73a>
  402b42:	b8 ff ff ff ff       	mov    $0xffffffff,%eax
  402b47:	48 8b 9c 24 48 a0 00 	mov    0xa048(%rsp),%rbx
  402b4e:	00 
  402b4f:	64 48 33 1c 25 28 00 	xor    %fs:0x28,%rbx
  402b56:	00 00 
  402b58:	74 05                	je     402b5f <submitr+0x752>
  402b5a:	e8 71 e1 ff ff       	callq  400cd0 <__stack_chk_fail@plt>
  402b5f:	48 81 c4 58 a0 00 00 	add    $0xa058,%rsp
  402b66:	5b                   	pop    %rbx
  402b67:	5d                   	pop    %rbp
  402b68:	41 5c                	pop    %r12
  402b6a:	41 5d                	pop    %r13
  402b6c:	41 5e                	pop    %r14
  402b6e:	41 5f                	pop    %r15
  402b70:	c3                   	retq   

0000000000402b71 <init_timeout>:
  402b71:	53                   	push   %rbx
  402b72:	89 fb                	mov    %edi,%ebx
  402b74:	85 ff                	test   %edi,%edi
  402b76:	74 1f                	je     402b97 <init_timeout+0x26>
  402b78:	85 ff                	test   %edi,%edi
  402b7a:	79 05                	jns    402b81 <init_timeout+0x10>
  402b7c:	bb 00 00 00 00       	mov    $0x0,%ebx
  402b81:	be 41 21 40 00       	mov    $0x402141,%esi
  402b86:	bf 0e 00 00 00       	mov    $0xe,%edi
  402b8b:	e8 b0 e1 ff ff       	callq  400d40 <signal@plt>
  402b90:	89 df                	mov    %ebx,%edi
  402b92:	e8 69 e1 ff ff       	callq  400d00 <alarm@plt>
  402b97:	5b                   	pop    %rbx
  402b98:	c3                   	retq   

0000000000402b99 <init_driver>:
  402b99:	55                   	push   %rbp
  402b9a:	53                   	push   %rbx
  402b9b:	48 83 ec 28          	sub    $0x28,%rsp
  402b9f:	48 89 fd             	mov    %rdi,%rbp
  402ba2:	64 48 8b 04 25 28 00 	mov    %fs:0x28,%rax
  402ba9:	00 00 
  402bab:	48 89 44 24 18       	mov    %rax,0x18(%rsp)
  402bb0:	31 c0                	xor    %eax,%eax
  402bb2:	be 01 00 00 00       	mov    $0x1,%esi
  402bb7:	bf 0d 00 00 00       	mov    $0xd,%edi
  402bbc:	e8 7f e1 ff ff       	callq  400d40 <signal@plt>
  402bc1:	be 01 00 00 00       	mov    $0x1,%esi
  402bc6:	bf 1d 00 00 00       	mov    $0x1d,%edi
  402bcb:	e8 70 e1 ff ff       	callq  400d40 <signal@plt>
  402bd0:	be 01 00 00 00       	mov    $0x1,%esi
  402bd5:	bf 1d 00 00 00       	mov    $0x1d,%edi
  402bda:	e8 61 e1 ff ff       	callq  400d40 <signal@plt>
  402bdf:	ba 00 00 00 00       	mov    $0x0,%edx
  402be4:	be 01 00 00 00       	mov    $0x1,%esi
  402be9:	bf 02 00 00 00       	mov    $0x2,%edi
  402bee:	e8 7d e2 ff ff       	callq  400e70 <socket@plt>
  402bf3:	89 c3                	mov    %eax,%ebx
  402bf5:	85 c0                	test   %eax,%eax
  402bf7:	79 4f                	jns    402c48 <init_driver+0xaf>
  402bf9:	48 b8 45 72 72 6f 72 	movabs $0x43203a726f727245,%rax
  402c00:	3a 20 43 
  402c03:	48 89 45 00          	mov    %rax,0x0(%rbp)
  402c07:	48 b8 6c 69 65 6e 74 	movabs $0x6e7520746e65696c,%rax
  402c0e:	20 75 6e 
  402c11:	48 89 45 08          	mov    %rax,0x8(%rbp)
  402c15:	48 b8 61 62 6c 65 20 	movabs $0x206f7420656c6261,%rax
  402c1c:	74 6f 20 
  402c1f:	48 89 45 10          	mov    %rax,0x10(%rbp)
  402c23:	48 b8 63 72 65 61 74 	movabs $0x7320657461657263,%rax
  402c2a:	65 20 73 
  402c2d:	48 89 45 18          	mov    %rax,0x18(%rbp)
  402c31:	c7 45 20 6f 63 6b 65 	movl   $0x656b636f,0x20(%rbp)
  402c38:	66 c7 45 24 74 00    	movw   $0x74,0x24(%rbp)
  402c3e:	b8 ff ff ff ff       	mov    $0xffffffff,%eax
  402c43:	e9 28 01 00 00       	jmpq   402d70 <init_driver+0x1d7>
  402c48:	bf f5 31 40 00       	mov    $0x4031f5,%edi
  402c4d:	e8 fe e0 ff ff       	callq  400d50 <gethostbyname@plt>
  402c52:	48 85 c0             	test   %rax,%rax
  402c55:	75 68                	jne    402cbf <init_driver+0x126>
  402c57:	48 b8 45 72 72 6f 72 	movabs $0x44203a726f727245,%rax
  402c5e:	3a 20 44 
  402c61:	48 89 45 00          	mov    %rax,0x0(%rbp)
  402c65:	48 b8 4e 53 20 69 73 	movabs $0x6e7520736920534e,%rax
  402c6c:	20 75 6e 
  402c6f:	48 89 45 08          	mov    %rax,0x8(%rbp)
  402c73:	48 b8 61 62 6c 65 20 	movabs $0x206f7420656c6261,%rax
  402c7a:	74 6f 20 
  402c7d:	48 89 45 10          	mov    %rax,0x10(%rbp)
  402c81:	48 b8 72 65 73 6f 6c 	movabs $0x2065766c6f736572,%rax
  402c88:	76 65 20 
  402c8b:	48 89 45 18          	mov    %rax,0x18(%rbp)
  402c8f:	48 b8 73 65 72 76 65 	movabs $0x6120726576726573,%rax
  402c96:	72 20 61 
  402c99:	48 89 45 20          	mov    %rax,0x20(%rbp)
  402c9d:	c7 45 28 64 64 72 65 	movl   $0x65726464,0x28(%rbp)
  402ca4:	66 c7 45 2c 73 73    	movw   $0x7373,0x2c(%rbp)
  402caa:	c6 45 2e 00          	movb   $0x0,0x2e(%rbp)
  402cae:	89 df                	mov    %ebx,%edi
  402cb0:	e8 5b e0 ff ff       	callq  400d10 <close@plt>
  402cb5:	b8 ff ff ff ff       	mov    $0xffffffff,%eax
  402cba:	e9 b1 00 00 00       	jmpq   402d70 <init_driver+0x1d7>
  402cbf:	48 c7 04 24 00 00 00 	movq   $0x0,(%rsp)
  402cc6:	00 
  402cc7:	48 c7 44 24 08 00 00 	movq   $0x0,0x8(%rsp)
  402cce:	00 00 
  402cd0:	66 c7 04 24 02 00    	movw   $0x2,(%rsp)
  402cd6:	48 63 50 14          	movslq 0x14(%rax),%rdx
  402cda:	48 8b 40 18          	mov    0x18(%rax),%rax
  402cde:	48 8b 30             	mov    (%rax),%rsi
  402ce1:	48 8d 7c 24 04       	lea    0x4(%rsp),%rdi
  402ce6:	b9 0c 00 00 00       	mov    $0xc,%ecx
  402ceb:	e8 70 e0 ff ff       	callq  400d60 <__memmove_chk@plt>
  402cf0:	66 c7 44 24 02 3c 9a 	movw   $0x9a3c,0x2(%rsp)
  402cf7:	ba 10 00 00 00       	mov    $0x10,%edx
  402cfc:	48 89 e6             	mov    %rsp,%rsi
  402cff:	89 df                	mov    %ebx,%edi
  402d01:	e8 3a e1 ff ff       	callq  400e40 <connect@plt>
  402d06:	85 c0                	test   %eax,%eax
  402d08:	79 50                	jns    402d5a <init_driver+0x1c1>
  402d0a:	48 b8 45 72 72 6f 72 	movabs $0x55203a726f727245,%rax
  402d11:	3a 20 55 
  402d14:	48 89 45 00          	mov    %rax,0x0(%rbp)
  402d18:	48 b8 6e 61 62 6c 65 	movabs $0x6f7420656c62616e,%rax
  402d1f:	20 74 6f 
  402d22:	48 89 45 08          	mov    %rax,0x8(%rbp)
  402d26:	48 b8 20 63 6f 6e 6e 	movabs $0x7463656e6e6f6320,%rax
  402d2d:	65 63 74 
  402d30:	48 89 45 10          	mov    %rax,0x10(%rbp)
  402d34:	48 b8 20 74 6f 20 73 	movabs $0x76726573206f7420,%rax
  402d3b:	65 72 76 
  402d3e:	48 89 45 18          	mov    %rax,0x18(%rbp)
  402d42:	66 c7 45 20 65 72    	movw   $0x7265,0x20(%rbp)
  402d48:	c6 45 22 00          	movb   $0x0,0x22(%rbp)
  402d4c:	89 df                	mov    %ebx,%edi
  402d4e:	e8 bd df ff ff       	callq  400d10 <close@plt>
  402d53:	b8 ff ff ff ff       	mov    $0xffffffff,%eax
  402d58:	eb 16                	jmp    402d70 <init_driver+0x1d7>
  402d5a:	89 df                	mov    %ebx,%edi
  402d5c:	e8 af df ff ff       	callq  400d10 <close@plt>
  402d61:	66 c7 45 00 4f 4b    	movw   $0x4b4f,0x0(%rbp)
  402d67:	c6 45 02 00          	movb   $0x0,0x2(%rbp)
  402d6b:	b8 00 00 00 00       	mov    $0x0,%eax
  402d70:	48 8b 4c 24 18       	mov    0x18(%rsp),%rcx
  402d75:	64 48 33 0c 25 28 00 	xor    %fs:0x28,%rcx
  402d7c:	00 00 
  402d7e:	74 05                	je     402d85 <init_driver+0x1ec>
  402d80:	e8 4b df ff ff       	callq  400cd0 <__stack_chk_fail@plt>
  402d85:	48 83 c4 28          	add    $0x28,%rsp
  402d89:	5b                   	pop    %rbx
  402d8a:	5d                   	pop    %rbp
  402d8b:	c3                   	retq   

0000000000402d8c <driver_post>:
  402d8c:	53                   	push   %rbx
  402d8d:	4c 89 cb             	mov    %r9,%rbx
  402d90:	45 85 c0             	test   %r8d,%r8d
  402d93:	74 27                	je     402dbc <driver_post+0x30>
  402d95:	48 89 ca             	mov    %rcx,%rdx
  402d98:	be e5 36 40 00       	mov    $0x4036e5,%esi
  402d9d:	bf 01 00 00 00       	mov    $0x1,%edi
  402da2:	b8 00 00 00 00       	mov    $0x0,%eax
  402da7:	e8 34 e0 ff ff       	callq  400de0 <__printf_chk@plt>
  402dac:	66 c7 03 4f 4b       	movw   $0x4b4f,(%rbx)
  402db1:	c6 43 02 00          	movb   $0x0,0x2(%rbx)
  402db5:	b8 00 00 00 00       	mov    $0x0,%eax
  402dba:	eb 3f                	jmp    402dfb <driver_post+0x6f>
  402dbc:	48 85 ff             	test   %rdi,%rdi
  402dbf:	74 2c                	je     402ded <driver_post+0x61>
  402dc1:	80 3f 00             	cmpb   $0x0,(%rdi)
  402dc4:	74 27                	je     402ded <driver_post+0x61>
  402dc6:	48 83 ec 08          	sub    $0x8,%rsp
  402dca:	41 51                	push   %r9
  402dcc:	49 89 c9             	mov    %rcx,%r9
  402dcf:	49 89 d0             	mov    %rdx,%r8
  402dd2:	48 89 f9             	mov    %rdi,%rcx
  402dd5:	48 89 f2             	mov    %rsi,%rdx
  402dd8:	be 9a 3c 00 00       	mov    $0x3c9a,%esi
  402ddd:	bf f5 31 40 00       	mov    $0x4031f5,%edi
  402de2:	e8 26 f6 ff ff       	callq  40240d <submitr>
  402de7:	48 83 c4 10          	add    $0x10,%rsp
  402deb:	eb 0e                	jmp    402dfb <driver_post+0x6f>
  402ded:	66 c7 03 4f 4b       	movw   $0x4b4f,(%rbx)
  402df2:	c6 43 02 00          	movb   $0x0,0x2(%rbx)
  402df6:	b8 00 00 00 00       	mov    $0x0,%eax
  402dfb:	5b                   	pop    %rbx
  402dfc:	c3                   	retq   

0000000000402dfd <check>:
  402dfd:	89 f8                	mov    %edi,%eax
  402dff:	c1 e8 1c             	shr    $0x1c,%eax
  402e02:	85 c0                	test   %eax,%eax
  402e04:	74 1d                	je     402e23 <check+0x26>
  402e06:	b9 00 00 00 00       	mov    $0x0,%ecx
  402e0b:	eb 0b                	jmp    402e18 <check+0x1b>
  402e0d:	89 f8                	mov    %edi,%eax
  402e0f:	d3 e8                	shr    %cl,%eax
  402e11:	3c 0a                	cmp    $0xa,%al
  402e13:	74 14                	je     402e29 <check+0x2c>
  402e15:	83 c1 08             	add    $0x8,%ecx
  402e18:	83 f9 1f             	cmp    $0x1f,%ecx
  402e1b:	7e f0                	jle    402e0d <check+0x10>
  402e1d:	b8 01 00 00 00       	mov    $0x1,%eax
  402e22:	c3                   	retq   
  402e23:	b8 00 00 00 00       	mov    $0x0,%eax
  402e28:	c3                   	retq   
  402e29:	b8 00 00 00 00       	mov    $0x0,%eax
  402e2e:	c3                   	retq   

0000000000402e2f <gencookie>:
  402e2f:	53                   	push   %rbx
  402e30:	83 c7 01             	add    $0x1,%edi
  402e33:	e8 48 de ff ff       	callq  400c80 <srandom@plt>
  402e38:	e8 63 df ff ff       	callq  400da0 <random@plt>
  402e3d:	89 c3                	mov    %eax,%ebx
  402e3f:	89 c7                	mov    %eax,%edi
  402e41:	e8 b7 ff ff ff       	callq  402dfd <check>
  402e46:	85 c0                	test   %eax,%eax
  402e48:	74 ee                	je     402e38 <gencookie+0x9>
  402e4a:	89 d8                	mov    %ebx,%eax
  402e4c:	5b                   	pop    %rbx
  402e4d:	c3                   	retq   
  402e4e:	66 90                	xchg   %ax,%ax

0000000000402e50 <__libc_csu_init>:
  402e50:	41 57                	push   %r15
  402e52:	41 89 ff             	mov    %edi,%r15d
  402e55:	41 56                	push   %r14
  402e57:	49 89 f6             	mov    %rsi,%r14
  402e5a:	41 55                	push   %r13
  402e5c:	49 89 d5             	mov    %rdx,%r13
  402e5f:	41 54                	push   %r12
  402e61:	4c 8d 25 a8 1f 20 00 	lea    0x201fa8(%rip),%r12        # 604e10 <__init_array_start>
  402e68:	55                   	push   %rbp
  402e69:	48 8d 2d a8 1f 20 00 	lea    0x201fa8(%rip),%rbp        # 604e18 <__init_array_end>
  402e70:	53                   	push   %rbx
  402e71:	4c 29 e5             	sub    %r12,%rbp
  402e74:	31 db                	xor    %ebx,%ebx
  402e76:	48 c1 fd 03          	sar    $0x3,%rbp
  402e7a:	48 83 ec 08          	sub    $0x8,%rsp
  402e7e:	e8 a5 dd ff ff       	callq  400c28 <_init>
  402e83:	48 85 ed             	test   %rbp,%rbp
  402e86:	74 1e                	je     402ea6 <__libc_csu_init+0x56>
  402e88:	0f 1f 84 00 00 00 00 	nopl   0x0(%rax,%rax,1)
  402e8f:	00 
  402e90:	4c 89 ea             	mov    %r13,%rdx
  402e93:	4c 89 f6             	mov    %r14,%rsi
  402e96:	44 89 ff             	mov    %r15d,%edi
  402e99:	41 ff 14 dc          	callq  *(%r12,%rbx,8)
  402e9d:	48 83 c3 01          	add    $0x1,%rbx
  402ea1:	48 39 eb             	cmp    %rbp,%rbx
  402ea4:	75 ea                	jne    402e90 <__libc_csu_init+0x40>
  402ea6:	48 83 c4 08          	add    $0x8,%rsp
  402eaa:	5b                   	pop    %rbx
  402eab:	5d                   	pop    %rbp
  402eac:	41 5c                	pop    %r12
  402eae:	41 5d                	pop    %r13
  402eb0:	41 5e                	pop    %r14
  402eb2:	41 5f                	pop    %r15
  402eb4:	c3                   	retq   
  402eb5:	90                   	nop
  402eb6:	66 2e 0f 1f 84 00 00 	nopw   %cs:0x0(%rax,%rax,1)
  402ebd:	00 00 00 

0000000000402ec0 <__libc_csu_fini>:
  402ec0:	f3 c3                	repz retq 

Disassembly of section .fini:

0000000000402ec4 <_fini>:
  402ec4:	48 83 ec 08          	sub    $0x8,%rsp
  402ec8:	48 83 c4 08          	add    $0x8,%rsp
  402ecc:	c3                   	retq   
